
proj1_SPI_LEDTest.elf:     file format elf32-littlearm

Sections:
Idx Name          Size      VMA       LMA       File off  Algn
  0 .isr_vector   000000b8  08000000  08000000  00001000  2**0
                  CONTENTS, ALLOC, LOAD, READONLY, DATA
  1 .text         00002f2c  080000b8  080000b8  000010b8  2**2
                  CONTENTS, ALLOC, LOAD, READONLY, CODE
  2 .rodata       000000ac  08002fe4  08002fe4  00003fe4  2**2
                  CONTENTS, ALLOC, LOAD, READONLY, DATA
  3 .ARM.extab    00000000  08003090  08003090  00005674  2**0
                  CONTENTS
  4 .ARM          00000000  08003090  08003090  00005674  2**0
                  CONTENTS
  5 .preinit_array 00000000  08003090  08003090  00005674  2**0
                  CONTENTS, ALLOC, LOAD, DATA
  6 .init_array   00000004  08003090  08003090  00004090  2**2
                  CONTENTS, ALLOC, LOAD, READONLY, DATA
  7 .fini_array   00000004  08003094  08003094  00004094  2**2
                  CONTENTS, ALLOC, LOAD, READONLY, DATA
  8 .data         00000674  20000000  08003098  00005000  2**2
                  CONTENTS, ALLOC, LOAD, DATA
  9 .bss          000001e0  20000674  0800370c  00005674  2**2
                  ALLOC
 10 ._user_heap_stack 00000604  20000854  0800370c  00005854  2**0
                  ALLOC
 11 .ARM.attributes 00000028  00000000  00000000  00005674  2**0
                  CONTENTS, READONLY
 12 .debug_info   0001dd8e  00000000  00000000  0000569c  2**0
                  CONTENTS, READONLY, DEBUGGING, OCTETS
 13 .debug_abbrev 00003585  00000000  00000000  0002342a  2**0
                  CONTENTS, READONLY, DEBUGGING, OCTETS
 14 .debug_loclists 0001042e  00000000  00000000  000269af  2**0
                  CONTENTS, READONLY, DEBUGGING, OCTETS
 15 .debug_aranges 000010d0  00000000  00000000  00036de0  2**3
                  CONTENTS, READONLY, DEBUGGING, OCTETS
 16 .debug_rnglists 00001a38  00000000  00000000  00037eb0  2**0
                  CONTENTS, READONLY, DEBUGGING, OCTETS
 17 .debug_macro  00016044  00000000  00000000  000398e8  2**0
                  CONTENTS, READONLY, DEBUGGING, OCTETS
 18 .debug_line   00021f2c  00000000  00000000  0004f92c  2**0
                  CONTENTS, READONLY, DEBUGGING, OCTETS
 19 .debug_str    0008f453  00000000  00000000  00071858  2**0
                  CONTENTS, READONLY, DEBUGGING, OCTETS
 20 .comment      00000043  00000000  00000000  00100cab  2**0
                  CONTENTS, READONLY
 21 .debug_frame  00002ffc  00000000  00000000  00100cf0  2**2
                  CONTENTS, READONLY, DEBUGGING, OCTETS
 22 .debug_line_str 00000056  00000000  00000000  00103cec  2**0
                  CONTENTS, READONLY, DEBUGGING, OCTETS

Disassembly of section .text:

080000b8 <__do_global_dtors_aux>:
 80000b8:	b510      	push	{r4, lr}
 80000ba:	4c06      	ldr	r4, [pc, #24]	@ (80000d4 <__do_global_dtors_aux+0x1c>)
 80000bc:	7823      	ldrb	r3, [r4, #0]
 80000be:	2b00      	cmp	r3, #0
 80000c0:	d107      	bne.n	80000d2 <__do_global_dtors_aux+0x1a>
 80000c2:	4b05      	ldr	r3, [pc, #20]	@ (80000d8 <__do_global_dtors_aux+0x20>)
 80000c4:	2b00      	cmp	r3, #0
 80000c6:	d002      	beq.n	80000ce <__do_global_dtors_aux+0x16>
 80000c8:	4804      	ldr	r0, [pc, #16]	@ (80000dc <__do_global_dtors_aux+0x24>)
 80000ca:	e000      	b.n	80000ce <__do_global_dtors_aux+0x16>
 80000cc:	bf00      	nop
 80000ce:	2301      	movs	r3, #1
 80000d0:	7023      	strb	r3, [r4, #0]
 80000d2:	bd10      	pop	{r4, pc}
 80000d4:	20000674 	.word	0x20000674
 80000d8:	00000000 	.word	0x00000000
 80000dc:	08002fcc 	.word	0x08002fcc

080000e0 <frame_dummy>:
 80000e0:	4b04      	ldr	r3, [pc, #16]	@ (80000f4 <frame_dummy+0x14>)
 80000e2:	b510      	push	{r4, lr}
 80000e4:	2b00      	cmp	r3, #0
 80000e6:	d003      	beq.n	80000f0 <frame_dummy+0x10>
 80000e8:	4903      	ldr	r1, [pc, #12]	@ (80000f8 <frame_dummy+0x18>)
 80000ea:	4804      	ldr	r0, [pc, #16]	@ (80000fc <frame_dummy+0x1c>)
 80000ec:	e000      	b.n	80000f0 <frame_dummy+0x10>
 80000ee:	bf00      	nop
 80000f0:	bd10      	pop	{r4, pc}
 80000f2:	46c0      	nop			@ (mov r8, r8)
 80000f4:	00000000 	.word	0x00000000
 80000f8:	20000678 	.word	0x20000678
 80000fc:	08002fcc 	.word	0x08002fcc

08000100 <__udivsi3>:
 8000100:	2200      	movs	r2, #0
 8000102:	0843      	lsrs	r3, r0, #1
 8000104:	428b      	cmp	r3, r1
 8000106:	d374      	bcc.n	80001f2 <__udivsi3+0xf2>
 8000108:	0903      	lsrs	r3, r0, #4
 800010a:	428b      	cmp	r3, r1
 800010c:	d35f      	bcc.n	80001ce <__udivsi3+0xce>
 800010e:	0a03      	lsrs	r3, r0, #8
 8000110:	428b      	cmp	r3, r1
 8000112:	d344      	bcc.n	800019e <__udivsi3+0x9e>
 8000114:	0b03      	lsrs	r3, r0, #12
 8000116:	428b      	cmp	r3, r1
 8000118:	d328      	bcc.n	800016c <__udivsi3+0x6c>
 800011a:	0c03      	lsrs	r3, r0, #16
 800011c:	428b      	cmp	r3, r1
 800011e:	d30d      	bcc.n	800013c <__udivsi3+0x3c>
 8000120:	22ff      	movs	r2, #255	@ 0xff
 8000122:	0209      	lsls	r1, r1, #8
 8000124:	ba12      	rev	r2, r2
 8000126:	0c03      	lsrs	r3, r0, #16
 8000128:	428b      	cmp	r3, r1
 800012a:	d302      	bcc.n	8000132 <__udivsi3+0x32>
 800012c:	1212      	asrs	r2, r2, #8
 800012e:	0209      	lsls	r1, r1, #8
 8000130:	d065      	beq.n	80001fe <__udivsi3+0xfe>
 8000132:	0b03      	lsrs	r3, r0, #12
 8000134:	428b      	cmp	r3, r1
 8000136:	d319      	bcc.n	800016c <__udivsi3+0x6c>
 8000138:	e000      	b.n	800013c <__udivsi3+0x3c>
 800013a:	0a09      	lsrs	r1, r1, #8
 800013c:	0bc3      	lsrs	r3, r0, #15
 800013e:	428b      	cmp	r3, r1
 8000140:	d301      	bcc.n	8000146 <__udivsi3+0x46>
 8000142:	03cb      	lsls	r3, r1, #15
 8000144:	1ac0      	subs	r0, r0, r3
 8000146:	4152      	adcs	r2, r2
 8000148:	0b83      	lsrs	r3, r0, #14
 800014a:	428b      	cmp	r3, r1
 800014c:	d301      	bcc.n	8000152 <__udivsi3+0x52>
 800014e:	038b      	lsls	r3, r1, #14
 8000150:	1ac0      	subs	r0, r0, r3
 8000152:	4152      	adcs	r2, r2
 8000154:	0b43      	lsrs	r3, r0, #13
 8000156:	428b      	cmp	r3, r1
 8000158:	d301      	bcc.n	800015e <__udivsi3+0x5e>
 800015a:	034b      	lsls	r3, r1, #13
 800015c:	1ac0      	subs	r0, r0, r3
 800015e:	4152      	adcs	r2, r2
 8000160:	0b03      	lsrs	r3, r0, #12
 8000162:	428b      	cmp	r3, r1
 8000164:	d301      	bcc.n	800016a <__udivsi3+0x6a>
 8000166:	030b      	lsls	r3, r1, #12
 8000168:	1ac0      	subs	r0, r0, r3
 800016a:	4152      	adcs	r2, r2
 800016c:	0ac3      	lsrs	r3, r0, #11
 800016e:	428b      	cmp	r3, r1
 8000170:	d301      	bcc.n	8000176 <__udivsi3+0x76>
 8000172:	02cb      	lsls	r3, r1, #11
 8000174:	1ac0      	subs	r0, r0, r3
 8000176:	4152      	adcs	r2, r2
 8000178:	0a83      	lsrs	r3, r0, #10
 800017a:	428b      	cmp	r3, r1
 800017c:	d301      	bcc.n	8000182 <__udivsi3+0x82>
 800017e:	028b      	lsls	r3, r1, #10
 8000180:	1ac0      	subs	r0, r0, r3
 8000182:	4152      	adcs	r2, r2
 8000184:	0a43      	lsrs	r3, r0, #9
 8000186:	428b      	cmp	r3, r1
 8000188:	d301      	bcc.n	800018e <__udivsi3+0x8e>
 800018a:	024b      	lsls	r3, r1, #9
 800018c:	1ac0      	subs	r0, r0, r3
 800018e:	4152      	adcs	r2, r2
 8000190:	0a03      	lsrs	r3, r0, #8
 8000192:	428b      	cmp	r3, r1
 8000194:	d301      	bcc.n	800019a <__udivsi3+0x9a>
 8000196:	020b      	lsls	r3, r1, #8
 8000198:	1ac0      	subs	r0, r0, r3
 800019a:	4152      	adcs	r2, r2
 800019c:	d2cd      	bcs.n	800013a <__udivsi3+0x3a>
 800019e:	09c3      	lsrs	r3, r0, #7
 80001a0:	428b      	cmp	r3, r1
 80001a2:	d301      	bcc.n	80001a8 <__udivsi3+0xa8>
 80001a4:	01cb      	lsls	r3, r1, #7
 80001a6:	1ac0      	subs	r0, r0, r3
 80001a8:	4152      	adcs	r2, r2
 80001aa:	0983      	lsrs	r3, r0, #6
 80001ac:	428b      	cmp	r3, r1
 80001ae:	d301      	bcc.n	80001b4 <__udivsi3+0xb4>
 80001b0:	018b      	lsls	r3, r1, #6
 80001b2:	1ac0      	subs	r0, r0, r3
 80001b4:	4152      	adcs	r2, r2
 80001b6:	0943      	lsrs	r3, r0, #5
 80001b8:	428b      	cmp	r3, r1
 80001ba:	d301      	bcc.n	80001c0 <__udivsi3+0xc0>
 80001bc:	014b      	lsls	r3, r1, #5
 80001be:	1ac0      	subs	r0, r0, r3
 80001c0:	4152      	adcs	r2, r2
 80001c2:	0903      	lsrs	r3, r0, #4
 80001c4:	428b      	cmp	r3, r1
 80001c6:	d301      	bcc.n	80001cc <__udivsi3+0xcc>
 80001c8:	010b      	lsls	r3, r1, #4
 80001ca:	1ac0      	subs	r0, r0, r3
 80001cc:	4152      	adcs	r2, r2
 80001ce:	08c3      	lsrs	r3, r0, #3
 80001d0:	428b      	cmp	r3, r1
 80001d2:	d301      	bcc.n	80001d8 <__udivsi3+0xd8>
 80001d4:	00cb      	lsls	r3, r1, #3
 80001d6:	1ac0      	subs	r0, r0, r3
 80001d8:	4152      	adcs	r2, r2
 80001da:	0883      	lsrs	r3, r0, #2
 80001dc:	428b      	cmp	r3, r1
 80001de:	d301      	bcc.n	80001e4 <__udivsi3+0xe4>
 80001e0:	008b      	lsls	r3, r1, #2
 80001e2:	1ac0      	subs	r0, r0, r3
 80001e4:	4152      	adcs	r2, r2
 80001e6:	0843      	lsrs	r3, r0, #1
 80001e8:	428b      	cmp	r3, r1
 80001ea:	d301      	bcc.n	80001f0 <__udivsi3+0xf0>
 80001ec:	004b      	lsls	r3, r1, #1
 80001ee:	1ac0      	subs	r0, r0, r3
 80001f0:	4152      	adcs	r2, r2
 80001f2:	1a41      	subs	r1, r0, r1
 80001f4:	d200      	bcs.n	80001f8 <__udivsi3+0xf8>
 80001f6:	4601      	mov	r1, r0
 80001f8:	4152      	adcs	r2, r2
 80001fa:	4610      	mov	r0, r2
 80001fc:	4770      	bx	lr
 80001fe:	e7ff      	b.n	8000200 <__udivsi3+0x100>
 8000200:	b501      	push	{r0, lr}
 8000202:	2000      	movs	r0, #0
 8000204:	f000 f8f0 	bl	80003e8 <__aeabi_idiv0>
 8000208:	bd02      	pop	{r1, pc}
 800020a:	46c0      	nop			@ (mov r8, r8)

0800020c <__aeabi_uidivmod>:
 800020c:	2900      	cmp	r1, #0
 800020e:	d0f7      	beq.n	8000200 <__udivsi3+0x100>
 8000210:	e776      	b.n	8000100 <__udivsi3>
 8000212:	4770      	bx	lr

08000214 <__divsi3>:
 8000214:	4603      	mov	r3, r0
 8000216:	430b      	orrs	r3, r1
 8000218:	d47f      	bmi.n	800031a <__divsi3+0x106>
 800021a:	2200      	movs	r2, #0
 800021c:	0843      	lsrs	r3, r0, #1
 800021e:	428b      	cmp	r3, r1
 8000220:	d374      	bcc.n	800030c <__divsi3+0xf8>
 8000222:	0903      	lsrs	r3, r0, #4
 8000224:	428b      	cmp	r3, r1
 8000226:	d35f      	bcc.n	80002e8 <__divsi3+0xd4>
 8000228:	0a03      	lsrs	r3, r0, #8
 800022a:	428b      	cmp	r3, r1
 800022c:	d344      	bcc.n	80002b8 <__divsi3+0xa4>
 800022e:	0b03      	lsrs	r3, r0, #12
 8000230:	428b      	cmp	r3, r1
 8000232:	d328      	bcc.n	8000286 <__divsi3+0x72>
 8000234:	0c03      	lsrs	r3, r0, #16
 8000236:	428b      	cmp	r3, r1
 8000238:	d30d      	bcc.n	8000256 <__divsi3+0x42>
 800023a:	22ff      	movs	r2, #255	@ 0xff
 800023c:	0209      	lsls	r1, r1, #8
 800023e:	ba12      	rev	r2, r2
 8000240:	0c03      	lsrs	r3, r0, #16
 8000242:	428b      	cmp	r3, r1
 8000244:	d302      	bcc.n	800024c <__divsi3+0x38>
 8000246:	1212      	asrs	r2, r2, #8
 8000248:	0209      	lsls	r1, r1, #8
 800024a:	d065      	beq.n	8000318 <__divsi3+0x104>
 800024c:	0b03      	lsrs	r3, r0, #12
 800024e:	428b      	cmp	r3, r1
 8000250:	d319      	bcc.n	8000286 <__divsi3+0x72>
 8000252:	e000      	b.n	8000256 <__divsi3+0x42>
 8000254:	0a09      	lsrs	r1, r1, #8
 8000256:	0bc3      	lsrs	r3, r0, #15
 8000258:	428b      	cmp	r3, r1
 800025a:	d301      	bcc.n	8000260 <__divsi3+0x4c>
 800025c:	03cb      	lsls	r3, r1, #15
 800025e:	1ac0      	subs	r0, r0, r3
 8000260:	4152      	adcs	r2, r2
 8000262:	0b83      	lsrs	r3, r0, #14
 8000264:	428b      	cmp	r3, r1
 8000266:	d301      	bcc.n	800026c <__divsi3+0x58>
 8000268:	038b      	lsls	r3, r1, #14
 800026a:	1ac0      	subs	r0, r0, r3
 800026c:	4152      	adcs	r2, r2
 800026e:	0b43      	lsrs	r3, r0, #13
 8000270:	428b      	cmp	r3, r1
 8000272:	d301      	bcc.n	8000278 <__divsi3+0x64>
 8000274:	034b      	lsls	r3, r1, #13
 8000276:	1ac0      	subs	r0, r0, r3
 8000278:	4152      	adcs	r2, r2
 800027a:	0b03      	lsrs	r3, r0, #12
 800027c:	428b      	cmp	r3, r1
 800027e:	d301      	bcc.n	8000284 <__divsi3+0x70>
 8000280:	030b      	lsls	r3, r1, #12
 8000282:	1ac0      	subs	r0, r0, r3
 8000284:	4152      	adcs	r2, r2
 8000286:	0ac3      	lsrs	r3, r0, #11
 8000288:	428b      	cmp	r3, r1
 800028a:	d301      	bcc.n	8000290 <__divsi3+0x7c>
 800028c:	02cb      	lsls	r3, r1, #11
 800028e:	1ac0      	subs	r0, r0, r3
 8000290:	4152      	adcs	r2, r2
 8000292:	0a83      	lsrs	r3, r0, #10
 8000294:	428b      	cmp	r3, r1
 8000296:	d301      	bcc.n	800029c <__divsi3+0x88>
 8000298:	028b      	lsls	r3, r1, #10
 800029a:	1ac0      	subs	r0, r0, r3
 800029c:	4152      	adcs	r2, r2
 800029e:	0a43      	lsrs	r3, r0, #9
 80002a0:	428b      	cmp	r3, r1
 80002a2:	d301      	bcc.n	80002a8 <__divsi3+0x94>
 80002a4:	024b      	lsls	r3, r1, #9
 80002a6:	1ac0      	subs	r0, r0, r3
 80002a8:	4152      	adcs	r2, r2
 80002aa:	0a03      	lsrs	r3, r0, #8
 80002ac:	428b      	cmp	r3, r1
 80002ae:	d301      	bcc.n	80002b4 <__divsi3+0xa0>
 80002b0:	020b      	lsls	r3, r1, #8
 80002b2:	1ac0      	subs	r0, r0, r3
 80002b4:	4152      	adcs	r2, r2
 80002b6:	d2cd      	bcs.n	8000254 <__divsi3+0x40>
 80002b8:	09c3      	lsrs	r3, r0, #7
 80002ba:	428b      	cmp	r3, r1
 80002bc:	d301      	bcc.n	80002c2 <__divsi3+0xae>
 80002be:	01cb      	lsls	r3, r1, #7
 80002c0:	1ac0      	subs	r0, r0, r3
 80002c2:	4152      	adcs	r2, r2
 80002c4:	0983      	lsrs	r3, r0, #6
 80002c6:	428b      	cmp	r3, r1
 80002c8:	d301      	bcc.n	80002ce <__divsi3+0xba>
 80002ca:	018b      	lsls	r3, r1, #6
 80002cc:	1ac0      	subs	r0, r0, r3
 80002ce:	4152      	adcs	r2, r2
 80002d0:	0943      	lsrs	r3, r0, #5
 80002d2:	428b      	cmp	r3, r1
 80002d4:	d301      	bcc.n	80002da <__divsi3+0xc6>
 80002d6:	014b      	lsls	r3, r1, #5
 80002d8:	1ac0      	subs	r0, r0, r3
 80002da:	4152      	adcs	r2, r2
 80002dc:	0903      	lsrs	r3, r0, #4
 80002de:	428b      	cmp	r3, r1
 80002e0:	d301      	bcc.n	80002e6 <__divsi3+0xd2>
 80002e2:	010b      	lsls	r3, r1, #4
 80002e4:	1ac0      	subs	r0, r0, r3
 80002e6:	4152      	adcs	r2, r2
 80002e8:	08c3      	lsrs	r3, r0, #3
 80002ea:	428b      	cmp	r3, r1
 80002ec:	d301      	bcc.n	80002f2 <__divsi3+0xde>
 80002ee:	00cb      	lsls	r3, r1, #3
 80002f0:	1ac0      	subs	r0, r0, r3
 80002f2:	4152      	adcs	r2, r2
 80002f4:	0883      	lsrs	r3, r0, #2
 80002f6:	428b      	cmp	r3, r1
 80002f8:	d301      	bcc.n	80002fe <__divsi3+0xea>
 80002fa:	008b      	lsls	r3, r1, #2
 80002fc:	1ac0      	subs	r0, r0, r3
 80002fe:	4152      	adcs	r2, r2
 8000300:	0843      	lsrs	r3, r0, #1
 8000302:	428b      	cmp	r3, r1
 8000304:	d301      	bcc.n	800030a <__divsi3+0xf6>
 8000306:	004b      	lsls	r3, r1, #1
 8000308:	1ac0      	subs	r0, r0, r3
 800030a:	4152      	adcs	r2, r2
 800030c:	1a41      	subs	r1, r0, r1
 800030e:	d200      	bcs.n	8000312 <__divsi3+0xfe>
 8000310:	4601      	mov	r1, r0
 8000312:	4152      	adcs	r2, r2
 8000314:	4610      	mov	r0, r2
 8000316:	4770      	bx	lr
 8000318:	e05d      	b.n	80003d6 <__divsi3+0x1c2>
 800031a:	0fca      	lsrs	r2, r1, #31
 800031c:	d000      	beq.n	8000320 <__divsi3+0x10c>
 800031e:	4249      	negs	r1, r1
 8000320:	1003      	asrs	r3, r0, #32
 8000322:	d300      	bcc.n	8000326 <__divsi3+0x112>
 8000324:	4240      	negs	r0, r0
 8000326:	4053      	eors	r3, r2
 8000328:	2200      	movs	r2, #0
 800032a:	469c      	mov	ip, r3
 800032c:	0903      	lsrs	r3, r0, #4
 800032e:	428b      	cmp	r3, r1
 8000330:	d32d      	bcc.n	800038e <__divsi3+0x17a>
 8000332:	0a03      	lsrs	r3, r0, #8
 8000334:	428b      	cmp	r3, r1
 8000336:	d312      	bcc.n	800035e <__divsi3+0x14a>
 8000338:	22fc      	movs	r2, #252	@ 0xfc
 800033a:	0189      	lsls	r1, r1, #6
 800033c:	ba12      	rev	r2, r2
 800033e:	0a03      	lsrs	r3, r0, #8
 8000340:	428b      	cmp	r3, r1
 8000342:	d30c      	bcc.n	800035e <__divsi3+0x14a>
 8000344:	0189      	lsls	r1, r1, #6
 8000346:	1192      	asrs	r2, r2, #6
 8000348:	428b      	cmp	r3, r1
 800034a:	d308      	bcc.n	800035e <__divsi3+0x14a>
 800034c:	0189      	lsls	r1, r1, #6
 800034e:	1192      	asrs	r2, r2, #6
 8000350:	428b      	cmp	r3, r1
 8000352:	d304      	bcc.n	800035e <__divsi3+0x14a>
 8000354:	0189      	lsls	r1, r1, #6
 8000356:	d03a      	beq.n	80003ce <__divsi3+0x1ba>
 8000358:	1192      	asrs	r2, r2, #6
 800035a:	e000      	b.n	800035e <__divsi3+0x14a>
 800035c:	0989      	lsrs	r1, r1, #6
 800035e:	09c3      	lsrs	r3, r0, #7
 8000360:	428b      	cmp	r3, r1
 8000362:	d301      	bcc.n	8000368 <__divsi3+0x154>
 8000364:	01cb      	lsls	r3, r1, #7
 8000366:	1ac0      	subs	r0, r0, r3
 8000368:	4152      	adcs	r2, r2
 800036a:	0983      	lsrs	r3, r0, #6
 800036c:	428b      	cmp	r3, r1
 800036e:	d301      	bcc.n	8000374 <__divsi3+0x160>
 8000370:	018b      	lsls	r3, r1, #6
 8000372:	1ac0      	subs	r0, r0, r3
 8000374:	4152      	adcs	r2, r2
 8000376:	0943      	lsrs	r3, r0, #5
 8000378:	428b      	cmp	r3, r1
 800037a:	d301      	bcc.n	8000380 <__divsi3+0x16c>
 800037c:	014b      	lsls	r3, r1, #5
 800037e:	1ac0      	subs	r0, r0, r3
 8000380:	4152      	adcs	r2, r2
 8000382:	0903      	lsrs	r3, r0, #4
 8000384:	428b      	cmp	r3, r1
 8000386:	d301      	bcc.n	800038c <__divsi3+0x178>
 8000388:	010b      	lsls	r3, r1, #4
 800038a:	1ac0      	subs	r0, r0, r3
 800038c:	4152      	adcs	r2, r2
 800038e:	08c3      	lsrs	r3, r0, #3
 8000390:	428b      	cmp	r3, r1
 8000392:	d301      	bcc.n	8000398 <__divsi3+0x184>
 8000394:	00cb      	lsls	r3, r1, #3
 8000396:	1ac0      	subs	r0, r0, r3
 8000398:	4152      	adcs	r2, r2
 800039a:	0883      	lsrs	r3, r0, #2
 800039c:	428b      	cmp	r3, r1
 800039e:	d301      	bcc.n	80003a4 <__divsi3+0x190>
 80003a0:	008b      	lsls	r3, r1, #2
 80003a2:	1ac0      	subs	r0, r0, r3
 80003a4:	4152      	adcs	r2, r2
 80003a6:	d2d9      	bcs.n	800035c <__divsi3+0x148>
 80003a8:	0843      	lsrs	r3, r0, #1
 80003aa:	428b      	cmp	r3, r1
 80003ac:	d301      	bcc.n	80003b2 <__divsi3+0x19e>
 80003ae:	004b      	lsls	r3, r1, #1
 80003b0:	1ac0      	subs	r0, r0, r3
 80003b2:	4152      	adcs	r2, r2
 80003b4:	1a41      	subs	r1, r0, r1
 80003b6:	d200      	bcs.n	80003ba <__divsi3+0x1a6>
 80003b8:	4601      	mov	r1, r0
 80003ba:	4663      	mov	r3, ip
 80003bc:	4152      	adcs	r2, r2
 80003be:	105b      	asrs	r3, r3, #1
 80003c0:	4610      	mov	r0, r2
 80003c2:	d301      	bcc.n	80003c8 <__divsi3+0x1b4>
 80003c4:	4240      	negs	r0, r0
 80003c6:	2b00      	cmp	r3, #0
 80003c8:	d500      	bpl.n	80003cc <__divsi3+0x1b8>
 80003ca:	4249      	negs	r1, r1
 80003cc:	4770      	bx	lr
 80003ce:	4663      	mov	r3, ip
 80003d0:	105b      	asrs	r3, r3, #1
 80003d2:	d300      	bcc.n	80003d6 <__divsi3+0x1c2>
 80003d4:	4240      	negs	r0, r0
 80003d6:	b501      	push	{r0, lr}
 80003d8:	2000      	movs	r0, #0
 80003da:	f000 f805 	bl	80003e8 <__aeabi_idiv0>
 80003de:	bd02      	pop	{r1, pc}

080003e0 <__aeabi_idivmod>:
 80003e0:	2900      	cmp	r1, #0
 80003e2:	d0f8      	beq.n	80003d6 <__divsi3+0x1c2>
 80003e4:	e716      	b.n	8000214 <__divsi3>
 80003e6:	4770      	bx	lr

080003e8 <__aeabi_idiv0>:
 80003e8:	4770      	bx	lr
 80003ea:	46c0      	nop			@ (mov r8, r8)

080003ec <LED_Init>:
int max_counter = 0;
int cnt;
LED_Color color[16] = {RED,RED};
LED_Color close[16] = {1,0,0,0,0,0,0,0,0,0,0,0,0,0,0,0};
void LED_Init()
{
 80003ec:	b510      	push	{r4, lr}
  HAL_GPIO_WritePin(LED_IN_RST_GPIO_Port,LED_IN_RST_Pin,GPIO_PIN_SET);
 80003ee:	24a0      	movs	r4, #160	@ 0xa0
 80003f0:	05e4      	lsls	r4, r4, #23
 80003f2:	0020      	movs	r0, r4
 80003f4:	2201      	movs	r2, #1
 80003f6:	2140      	movs	r1, #64	@ 0x40
 80003f8:	f000 fe24 	bl	8001044 <HAL_GPIO_WritePin>
  HAL_GPIO_WritePin(LED_OUT_EN_GPIO_Port,LED_OUT_EN_Pin,GPIO_PIN_RESET);
 80003fc:	2200      	movs	r2, #0
 80003fe:	2108      	movs	r1, #8
 8000400:	0020      	movs	r0, r4
 8000402:	f000 fe1f 	bl	8001044 <HAL_GPIO_WritePin>
}
 8000406:	bd10      	pop	{r4, pc}

08000408 <LED_Display_6Byte_SPI>:
      }
    }
  }
}

void LED_Display_6Byte_SPI(GPIO_PinState * Input_Data) {
 8000408:	b5f0      	push	{r4, r5, r6, r7, lr}
 800040a:	4657      	mov	r7, sl
 800040c:	464e      	mov	r6, r9
 800040e:	4645      	mov	r5, r8
 8000410:	46de      	mov	lr, fp
 8000412:	b5e0      	push	{r5, r6, r7, lr}
      GPIO_PinState temp=Input_Data[j+i-7];
 8000414:	7803      	ldrb	r3, [r0, #0]
      Input_Data[j+i-7]=Input_Data[i-1-j];
 8000416:	7982      	ldrb	r2, [r0, #6]
      Input_Data[i-1-j]=temp;
 8000418:	7183      	strb	r3, [r0, #6]
      Input_Data[j+i-7]=Input_Data[i-1-j];
 800041a:	7002      	strb	r2, [r0, #0]
      GPIO_PinState temp=Input_Data[j+i-7];
 800041c:	7843      	ldrb	r3, [r0, #1]
      Input_Data[j+i-7]=Input_Data[i-1-j];
 800041e:	7942      	ldrb	r2, [r0, #5]
      Input_Data[i-1-j]=temp;
 8000420:	7143      	strb	r3, [r0, #5]
      Input_Data[j+i-7]=Input_Data[i-1-j];
 8000422:	7042      	strb	r2, [r0, #1]
      GPIO_PinState temp=Input_Data[j+i-7];
 8000424:	7883      	ldrb	r3, [r0, #2]
      Input_Data[j+i-7]=Input_Data[i-1-j];
 8000426:	7902      	ldrb	r2, [r0, #4]
      Input_Data[i-1-j]=temp;
 8000428:	7103      	strb	r3, [r0, #4]
      Input_Data[j+i-7]=Input_Data[i-1-j];
 800042a:	7082      	strb	r2, [r0, #2]
      GPIO_PinState temp=Input_Data[j+i-7];
 800042c:	7a03      	ldrb	r3, [r0, #8]
      Input_Data[j+i-7]=Input_Data[i-1-j];
 800042e:	7b82      	ldrb	r2, [r0, #14]
      Input_Data[i-1-j]=temp;
 8000430:	7383      	strb	r3, [r0, #14]
      Input_Data[j+i-7]=Input_Data[i-1-j];
 8000432:	7202      	strb	r2, [r0, #8]
      GPIO_PinState temp=Input_Data[j+i-7];
 8000434:	7a43      	ldrb	r3, [r0, #9]
      Input_Data[j+i-7]=Input_Data[i-1-j];
 8000436:	7b42      	ldrb	r2, [r0, #13]
      Input_Data[i-1-j]=temp;
 8000438:	7343      	strb	r3, [r0, #13]
      Input_Data[j+i-7]=Input_Data[i-1-j];
 800043a:	7242      	strb	r2, [r0, #9]
      GPIO_PinState temp=Input_Data[j+i-7];
 800043c:	7a83      	ldrb	r3, [r0, #10]
      Input_Data[j+i-7]=Input_Data[i-1-j];
 800043e:	7b02      	ldrb	r2, [r0, #12]
      Input_Data[i-1-j]=temp;
 8000440:	7303      	strb	r3, [r0, #12]
      Input_Data[j+i-7]=Input_Data[i-1-j];
 8000442:	7282      	strb	r2, [r0, #10]
      GPIO_PinState temp=Input_Data[j+i-7];
 8000444:	7c03      	ldrb	r3, [r0, #16]
      Input_Data[j+i-7]=Input_Data[i-1-j];
 8000446:	7d82      	ldrb	r2, [r0, #22]
      Input_Data[i-1-j]=temp;
 8000448:	7583      	strb	r3, [r0, #22]
      Input_Data[j+i-7]=Input_Data[i-1-j];
 800044a:	7402      	strb	r2, [r0, #16]
      GPIO_PinState temp=Input_Data[j+i-7];
 800044c:	7c43      	ldrb	r3, [r0, #17]
      Input_Data[j+i-7]=Input_Data[i-1-j];
 800044e:	7d42      	ldrb	r2, [r0, #21]
void LED_Display_6Byte_SPI(GPIO_PinState * Input_Data) {
 8000450:	b083      	sub	sp, #12
      Input_Data[j+i-7]=Input_Data[i-1-j];
 8000452:	7442      	strb	r2, [r0, #17]
      Input_Data[i-1-j]=temp;
 8000454:	7543      	strb	r3, [r0, #21]
      Input_Data[j+i-7]=Input_Data[i-1-j];
 8000456:	7d02      	ldrb	r2, [r0, #20]
      GPIO_PinState temp=Input_Data[j+i-7];
 8000458:	7c83      	ldrb	r3, [r0, #18]
      Input_Data[j+i-7]=Input_Data[i-1-j];
 800045a:	7482      	strb	r2, [r0, #18]
      Input_Data[i-1-j]=temp;
 800045c:	7503      	strb	r3, [r0, #20]
      Input_Data[j+i-7]=Input_Data[i-1-j];
 800045e:	7f82      	ldrb	r2, [r0, #30]
      GPIO_PinState temp=Input_Data[j+i-7];
 8000460:	7e03      	ldrb	r3, [r0, #24]
      Input_Data[j+i-7]=Input_Data[i-1-j];
 8000462:	7602      	strb	r2, [r0, #24]
      Input_Data[i-1-j]=temp;
 8000464:	7783      	strb	r3, [r0, #30]
      Input_Data[j+i-7]=Input_Data[i-1-j];
 8000466:	7f42      	ldrb	r2, [r0, #29]
      GPIO_PinState temp=Input_Data[j+i-7];
 8000468:	7e43      	ldrb	r3, [r0, #25]
      Input_Data[j+i-7]=Input_Data[i-1-j];
 800046a:	7642      	strb	r2, [r0, #25]
      Input_Data[i-1-j]=temp;
 800046c:	7743      	strb	r3, [r0, #29]
      Input_Data[j+i-7]=Input_Data[i-1-j];
 800046e:	7f02      	ldrb	r2, [r0, #28]
      GPIO_PinState temp=Input_Data[j+i-7];
 8000470:	7e83      	ldrb	r3, [r0, #26]
      Input_Data[j+i-7]=Input_Data[i-1-j];
 8000472:	7682      	strb	r2, [r0, #26]
      Input_Data[i-1-j]=temp;
 8000474:	7703      	strb	r3, [r0, #28]
      GPIO_PinState temp=Input_Data[j+i-7];
 8000476:	2220      	movs	r2, #32
      Input_Data[j+i-7]=Input_Data[i-1-j];
 8000478:	2326      	movs	r3, #38	@ 0x26
      GPIO_PinState temp=Input_Data[j+i-7];
 800047a:	5c81      	ldrb	r1, [r0, r2]
      Input_Data[j+i-7]=Input_Data[i-1-j];
 800047c:	5cc4      	ldrb	r4, [r0, r3]
        Bytes[byte_index]|=(1<<(7-i));
 800047e:	2708      	movs	r7, #8
      Input_Data[j+i-7]=Input_Data[i-1-j];
 8000480:	5484      	strb	r4, [r0, r2]
      Input_Data[i-1-j]=temp;
 8000482:	54c1      	strb	r1, [r0, r3]
      GPIO_PinState temp=Input_Data[j+i-7];
 8000484:	3201      	adds	r2, #1
      Input_Data[j+i-7]=Input_Data[i-1-j];
 8000486:	3b01      	subs	r3, #1
      GPIO_PinState temp=Input_Data[j+i-7];
 8000488:	5c81      	ldrb	r1, [r0, r2]
      Input_Data[j+i-7]=Input_Data[i-1-j];
 800048a:	5cc4      	ldrb	r4, [r0, r3]
        Bytes[byte_index]|=(1<<(7-i));
 800048c:	2604      	movs	r6, #4
      Input_Data[j+i-7]=Input_Data[i-1-j];
 800048e:	5484      	strb	r4, [r0, r2]
      Input_Data[i-1-j]=temp;
 8000490:	54c1      	strb	r1, [r0, r3]
      GPIO_PinState temp=Input_Data[j+i-7];
 8000492:	3201      	adds	r2, #1
      Input_Data[j+i-7]=Input_Data[i-1-j];
 8000494:	3b01      	subs	r3, #1
      GPIO_PinState temp=Input_Data[j+i-7];
 8000496:	5c81      	ldrb	r1, [r0, r2]
      Input_Data[j+i-7]=Input_Data[i-1-j];
 8000498:	5cc4      	ldrb	r4, [r0, r3]
        Bytes[byte_index]|=(1<<(7-i));
 800049a:	2502      	movs	r5, #2
      Input_Data[j+i-7]=Input_Data[i-1-j];
 800049c:	5484      	strb	r4, [r0, r2]
      Input_Data[i-1-j]=temp;
 800049e:	54c1      	strb	r1, [r0, r3]
      GPIO_PinState temp=Input_Data[j+i-7];
 80004a0:	3206      	adds	r2, #6
      Input_Data[j+i-7]=Input_Data[i-1-j];
 80004a2:	330a      	adds	r3, #10
      GPIO_PinState temp=Input_Data[j+i-7];
 80004a4:	5c81      	ldrb	r1, [r0, r2]
      Input_Data[j+i-7]=Input_Data[i-1-j];
 80004a6:	5cc4      	ldrb	r4, [r0, r3]
 80004a8:	5484      	strb	r4, [r0, r2]
      Input_Data[i-1-j]=temp;
 80004aa:	54c1      	strb	r1, [r0, r3]
      GPIO_PinState temp=Input_Data[j+i-7];
 80004ac:	3201      	adds	r2, #1
      Input_Data[j+i-7]=Input_Data[i-1-j];
 80004ae:	3b01      	subs	r3, #1
      GPIO_PinState temp=Input_Data[j+i-7];
 80004b0:	5c81      	ldrb	r1, [r0, r2]
      Input_Data[j+i-7]=Input_Data[i-1-j];
 80004b2:	5cc4      	ldrb	r4, [r0, r3]
 80004b4:	5484      	strb	r4, [r0, r2]
      Input_Data[i-1-j]=temp;
 80004b6:	54c1      	strb	r1, [r0, r3]
      GPIO_PinState temp=Input_Data[j+i-7];
 80004b8:	3201      	adds	r2, #1
      Input_Data[j+i-7]=Input_Data[i-1-j];
 80004ba:	3b01      	subs	r3, #1
      GPIO_PinState temp=Input_Data[j+i-7];
 80004bc:	5c81      	ldrb	r1, [r0, r2]
      Input_Data[j+i-7]=Input_Data[i-1-j];
 80004be:	5cc4      	ldrb	r4, [r0, r3]
 80004c0:	5484      	strb	r4, [r0, r2]
  Input_Fix(Input_Data);
  uint8_t Input_Byte[6]={0};
 80004c2:	466a      	mov	r2, sp
      Input_Data[i-1-j]=temp;
 80004c4:	54c1      	strb	r1, [r0, r3]
  uint8_t Input_Byte[6]={0};
 80004c6:	2300      	movs	r3, #0
 80004c8:	8093      	strh	r3, [r2, #4]
        Bytes[byte_index]|=(1<<(7-i));
 80004ca:	2280      	movs	r2, #128	@ 0x80
 80004cc:	4252      	negs	r2, r2
 80004ce:	4692      	mov	sl, r2
 80004d0:	2240      	movs	r2, #64	@ 0x40
 80004d2:	4691      	mov	r9, r2
 80004d4:	2220      	movs	r2, #32
 80004d6:	4690      	mov	r8, r2
 80004d8:	2210      	movs	r2, #16
 80004da:	4694      	mov	ip, r2
 80004dc:	2201      	movs	r2, #1
 80004de:	0001      	movs	r1, r0
  uint8_t Input_Byte[6]={0};
 80004e0:	9300      	str	r3, [sp, #0]
        Bytes[byte_index]|=(1<<(7-i));
 80004e2:	4693      	mov	fp, r2
 80004e4:	466b      	mov	r3, sp
 80004e6:	3130      	adds	r1, #48	@ 0x30
      switch(Input_Bits[byte_index*8+i]) {
 80004e8:	7802      	ldrb	r2, [r0, #0]
 80004ea:	2a01      	cmp	r2, #1
 80004ec:	d103      	bne.n	80004f6 <LED_Display_6Byte_SPI+0xee>
        Bytes[byte_index]|=(1<<(7-i));
 80004ee:	4654      	mov	r4, sl
 80004f0:	781a      	ldrb	r2, [r3, #0]
 80004f2:	4322      	orrs	r2, r4
 80004f4:	701a      	strb	r2, [r3, #0]
      switch(Input_Bits[byte_index*8+i]) {
 80004f6:	7842      	ldrb	r2, [r0, #1]
 80004f8:	2a01      	cmp	r2, #1
 80004fa:	d103      	bne.n	8000504 <LED_Display_6Byte_SPI+0xfc>
        Bytes[byte_index]|=(1<<(7-i));
 80004fc:	464c      	mov	r4, r9
 80004fe:	781a      	ldrb	r2, [r3, #0]
 8000500:	4322      	orrs	r2, r4
 8000502:	701a      	strb	r2, [r3, #0]
      switch(Input_Bits[byte_index*8+i]) {
 8000504:	7882      	ldrb	r2, [r0, #2]
 8000506:	2a01      	cmp	r2, #1
 8000508:	d103      	bne.n	8000512 <LED_Display_6Byte_SPI+0x10a>
        Bytes[byte_index]|=(1<<(7-i));
 800050a:	4644      	mov	r4, r8
 800050c:	781a      	ldrb	r2, [r3, #0]
 800050e:	4322      	orrs	r2, r4
 8000510:	701a      	strb	r2, [r3, #0]
      switch(Input_Bits[byte_index*8+i]) {
 8000512:	78c2      	ldrb	r2, [r0, #3]
 8000514:	2a01      	cmp	r2, #1
 8000516:	d103      	bne.n	8000520 <LED_Display_6Byte_SPI+0x118>
        Bytes[byte_index]|=(1<<(7-i));
 8000518:	4664      	mov	r4, ip
 800051a:	781a      	ldrb	r2, [r3, #0]
 800051c:	4322      	orrs	r2, r4
 800051e:	701a      	strb	r2, [r3, #0]
      switch(Input_Bits[byte_index*8+i]) {
 8000520:	7902      	ldrb	r2, [r0, #4]
 8000522:	2a01      	cmp	r2, #1
 8000524:	d102      	bne.n	800052c <LED_Display_6Byte_SPI+0x124>
        Bytes[byte_index]|=(1<<(7-i));
 8000526:	781a      	ldrb	r2, [r3, #0]
 8000528:	433a      	orrs	r2, r7
 800052a:	701a      	strb	r2, [r3, #0]
      switch(Input_Bits[byte_index*8+i]) {
 800052c:	7942      	ldrb	r2, [r0, #5]
 800052e:	2a01      	cmp	r2, #1
 8000530:	d102      	bne.n	8000538 <LED_Display_6Byte_SPI+0x130>
        Bytes[byte_index]|=(1<<(7-i));
 8000532:	781a      	ldrb	r2, [r3, #0]
 8000534:	4332      	orrs	r2, r6
 8000536:	701a      	strb	r2, [r3, #0]
      switch(Input_Bits[byte_index*8+i]) {
 8000538:	7982      	ldrb	r2, [r0, #6]
 800053a:	2a01      	cmp	r2, #1
 800053c:	d102      	bne.n	8000544 <LED_Display_6Byte_SPI+0x13c>
        Bytes[byte_index]|=(1<<(7-i));
 800053e:	781a      	ldrb	r2, [r3, #0]
 8000540:	432a      	orrs	r2, r5
 8000542:	701a      	strb	r2, [r3, #0]
      switch(Input_Bits[byte_index*8+i]) {
 8000544:	79c2      	ldrb	r2, [r0, #7]
 8000546:	2a01      	cmp	r2, #1
 8000548:	d103      	bne.n	8000552 <LED_Display_6Byte_SPI+0x14a>
        Bytes[byte_index]|=(1<<(7-i));
 800054a:	465c      	mov	r4, fp
 800054c:	781a      	ldrb	r2, [r3, #0]
 800054e:	4322      	orrs	r2, r4
 8000550:	701a      	strb	r2, [r3, #0]
  for (int byte_index=0;byte_index<6;byte_index++) {
 8000552:	3008      	adds	r0, #8
 8000554:	3301      	adds	r3, #1
 8000556:	4281      	cmp	r1, r0
 8000558:	d1c6      	bne.n	80004e8 <LED_Display_6Byte_SPI+0xe0>
  Generate_Bytes(Input_Data,Input_Byte);

  HAL_GPIO_WritePin(LED_OUT_CLK_GPIO_Port,LED_OUT_CLK_Pin,GPIO_PIN_RESET);
 800055a:	20a0      	movs	r0, #160	@ 0xa0
 800055c:	2200      	movs	r2, #0
 800055e:	2110      	movs	r1, #16
 8000560:	05c0      	lsls	r0, r0, #23
 8000562:	f000 fd6f 	bl	8001044 <HAL_GPIO_WritePin>
  HAL_SPI_Transmit(&hspi1,Input_Byte, 6, 1);
 8000566:	2301      	movs	r3, #1
 8000568:	4669      	mov	r1, sp
 800056a:	2206      	movs	r2, #6
 800056c:	4807      	ldr	r0, [pc, #28]	@ (800058c <LED_Display_6Byte_SPI+0x184>)
 800056e:	f001 fe2b 	bl	80021c8 <HAL_SPI_Transmit>
  HAL_GPIO_WritePin(LED_OUT_CLK_GPIO_Port,LED_OUT_CLK_Pin,GPIO_PIN_SET);
 8000572:	20a0      	movs	r0, #160	@ 0xa0
 8000574:	2201      	movs	r2, #1
 8000576:	2110      	movs	r1, #16
 8000578:	05c0      	lsls	r0, r0, #23
 800057a:	f000 fd63 	bl	8001044 <HAL_GPIO_WritePin>
}
 800057e:	b003      	add	sp, #12
 8000580:	bcf0      	pop	{r4, r5, r6, r7}
 8000582:	46bb      	mov	fp, r7
 8000584:	46b2      	mov	sl, r6
 8000586:	46a9      	mov	r9, r5
 8000588:	46a0      	mov	r8, r4
 800058a:	bdf0      	pop	{r4, r5, r6, r7, pc}
 800058c:	200007b4 	.word	0x200007b4

08000590 <LED_Display_Color>:
//  }
//  HAL_GPIO_WritePin(LED_OUT_CLK_GPIO_Port,LED_OUT_CLK_Pin,GPIO_PIN_SET);
//}

void LED_Display_Color(LED_Color * Color_Input) {
  uint8_t Color_Bytes[48]={1};
 8000590:	2301      	movs	r3, #1
void LED_Display_Color(LED_Color * Color_Input) {
 8000592:	b570      	push	{r4, r5, r6, lr}
 8000594:	0004      	movs	r4, r0
 8000596:	b08c      	sub	sp, #48	@ 0x30
  uint8_t Color_Bytes[48]={1};
 8000598:	2100      	movs	r1, #0
 800059a:	222c      	movs	r2, #44	@ 0x2c
 800059c:	a801      	add	r0, sp, #4
 800059e:	9300      	str	r3, [sp, #0]
 80005a0:	f002 fce8 	bl	8002f74 <memset>
  int color_index=0,byte_index=47;
  while(color_index<16) {
 80005a4:	232d      	movs	r3, #45	@ 0x2d
 80005a6:	0020      	movs	r0, r4
  uint8_t Color_Bytes[48]={1};
 80005a8:	466d      	mov	r5, sp
      Color_Bytes[byte_index-1]=GPIO_PIN_RESET;
      Color_Bytes[byte_index-2]=GPIO_PIN_SET;
      break;
    }
    case WHITE:{
      Color_Bytes[byte_index]=GPIO_PIN_RESET;
 80005aa:	2400      	movs	r4, #0
      Color_Bytes[byte_index-2]=GPIO_PIN_SET;
 80005ac:	2101      	movs	r1, #1
    switch(Color_Input[color_index]){
 80005ae:	4e1a      	ldr	r6, [pc, #104]	@ (8000618 <LED_Display_Color+0x88>)
 80005b0:	446b      	add	r3, sp
 80005b2:	7802      	ldrb	r2, [r0, #0]
 80005b4:	2a07      	cmp	r2, #7
 80005b6:	d805      	bhi.n	80005c4 <LED_Display_Color+0x34>
 80005b8:	0092      	lsls	r2, r2, #2
 80005ba:	58b2      	ldr	r2, [r6, r2]
 80005bc:	4697      	mov	pc, r2
      Color_Bytes[byte_index]=GPIO_PIN_RESET;
 80005be:	709c      	strb	r4, [r3, #2]
      Color_Bytes[byte_index-1]=GPIO_PIN_RESET;
 80005c0:	705c      	strb	r4, [r3, #1]
      Color_Bytes[byte_index-2]=GPIO_PIN_SET;
 80005c2:	7019      	strb	r1, [r3, #0]
  while(color_index<16) {
 80005c4:	3001      	adds	r0, #1
 80005c6:	1eda      	subs	r2, r3, #3
 80005c8:	429d      	cmp	r5, r3
 80005ca:	d008      	beq.n	80005de <LED_Display_Color+0x4e>
 80005cc:	0013      	movs	r3, r2
 80005ce:	e7f0      	b.n	80005b2 <LED_Display_Color+0x22>
      Color_Bytes[byte_index]=GPIO_PIN_RESET;
 80005d0:	709c      	strb	r4, [r3, #2]
      Color_Bytes[byte_index-1]=GPIO_PIN_SET;
 80005d2:	7059      	strb	r1, [r3, #1]
      Color_Bytes[byte_index-2]=GPIO_PIN_RESET;
 80005d4:	701c      	strb	r4, [r3, #0]
  while(color_index<16) {
 80005d6:	3001      	adds	r0, #1
 80005d8:	1eda      	subs	r2, r3, #3
 80005da:	429d      	cmp	r5, r3
 80005dc:	d1f6      	bne.n	80005cc <LED_Display_Color+0x3c>
    }
    }
    color_index++;
    byte_index-=3;
  }
  LED_Display_6Byte_SPI(Color_Bytes);
 80005de:	0028      	movs	r0, r5
 80005e0:	f7ff ff12 	bl	8000408 <LED_Display_6Byte_SPI>
}
 80005e4:	b00c      	add	sp, #48	@ 0x30
 80005e6:	bd70      	pop	{r4, r5, r6, pc}
      Color_Bytes[byte_index]=GPIO_PIN_SET;
 80005e8:	7099      	strb	r1, [r3, #2]
      Color_Bytes[byte_index-1]=GPIO_PIN_SET;
 80005ea:	7059      	strb	r1, [r3, #1]
      Color_Bytes[byte_index-2]=GPIO_PIN_RESET;
 80005ec:	701c      	strb	r4, [r3, #0]
      break;
 80005ee:	e7e9      	b.n	80005c4 <LED_Display_Color+0x34>
      Color_Bytes[byte_index]=GPIO_PIN_RESET;
 80005f0:	709c      	strb	r4, [r3, #2]
      Color_Bytes[byte_index-1]=GPIO_PIN_RESET;
 80005f2:	705c      	strb	r4, [r3, #1]
      Color_Bytes[byte_index-2]=GPIO_PIN_RESET;
 80005f4:	701c      	strb	r4, [r3, #0]
      break;
 80005f6:	e7e5      	b.n	80005c4 <LED_Display_Color+0x34>
      Color_Bytes[byte_index]=GPIO_PIN_SET;
 80005f8:	7099      	strb	r1, [r3, #2]
      Color_Bytes[byte_index-1]=GPIO_PIN_SET;
 80005fa:	7059      	strb	r1, [r3, #1]
      Color_Bytes[byte_index-2]=GPIO_PIN_SET;
 80005fc:	7019      	strb	r1, [r3, #0]
      break;
 80005fe:	e7e1      	b.n	80005c4 <LED_Display_Color+0x34>
      Color_Bytes[byte_index]=GPIO_PIN_RESET;
 8000600:	709c      	strb	r4, [r3, #2]
      Color_Bytes[byte_index-1]=GPIO_PIN_SET;
 8000602:	7059      	strb	r1, [r3, #1]
      Color_Bytes[byte_index-2]=GPIO_PIN_SET;
 8000604:	7019      	strb	r1, [r3, #0]
      break;
 8000606:	e7dd      	b.n	80005c4 <LED_Display_Color+0x34>
      Color_Bytes[byte_index]=GPIO_PIN_SET;
 8000608:	7099      	strb	r1, [r3, #2]
      Color_Bytes[byte_index-1]=GPIO_PIN_RESET;
 800060a:	705c      	strb	r4, [r3, #1]
      Color_Bytes[byte_index-2]=GPIO_PIN_SET;
 800060c:	7019      	strb	r1, [r3, #0]
      break;
 800060e:	e7d9      	b.n	80005c4 <LED_Display_Color+0x34>
      Color_Bytes[byte_index]=GPIO_PIN_SET;
 8000610:	7099      	strb	r1, [r3, #2]
      Color_Bytes[byte_index-1]=GPIO_PIN_RESET;
 8000612:	705c      	strb	r4, [r3, #1]
      Color_Bytes[byte_index-2]=GPIO_PIN_RESET;
 8000614:	701c      	strb	r4, [r3, #0]
      break;
 8000616:	e7d5      	b.n	80005c4 <LED_Display_Color+0x34>
 8000618:	08002fe4 	.word	0x08002fe4

0800061c <caculate_theta>:
	rad = 360 / (counter);
	//atime = counter;
}
void caculate_theta(void)
{
	theta = now_counter * rad;
 800061c:	4a03      	ldr	r2, [pc, #12]	@ (800062c <caculate_theta+0x10>)
 800061e:	4b04      	ldr	r3, [pc, #16]	@ (8000630 <caculate_theta+0x14>)
 8000620:	6812      	ldr	r2, [r2, #0]
 8000622:	681b      	ldr	r3, [r3, #0]
 8000624:	4903      	ldr	r1, [pc, #12]	@ (8000634 <caculate_theta+0x18>)
 8000626:	4353      	muls	r3, r2
 8000628:	600b      	str	r3, [r1, #0]
}
 800062a:	4770      	bx	lr
 800062c:	200006ac 	.word	0x200006ac
 8000630:	200006a0 	.word	0x200006a0
 8000634:	200006a4 	.word	0x200006a4

08000638 <SystemClock_Config>:
/**
  * @brief System Clock Configuration
  * @retval None
  */
void SystemClock_Config(void)
{
 8000638:	b510      	push	{r4, lr}
 800063a:	b092      	sub	sp, #72	@ 0x48
  RCC_OscInitTypeDef RCC_OscInitStruct = {0};
 800063c:	2234      	movs	r2, #52	@ 0x34
 800063e:	2100      	movs	r1, #0
 8000640:	a804      	add	r0, sp, #16
 8000642:	f002 fc97 	bl	8002f74 <memset>
  RCC_ClkInitTypeDef RCC_ClkInitStruct = {0};
 8000646:	2210      	movs	r2, #16
 8000648:	2100      	movs	r1, #0
 800064a:	4668      	mov	r0, sp
 800064c:	f002 fc92 	bl	8002f74 <memset>

  /** Configure the main internal regulator output voltage
  */
  HAL_PWREx_ControlVoltageScaling(PWR_REGULATOR_VOLTAGE_SCALE1);
 8000650:	2080      	movs	r0, #128	@ 0x80
 8000652:	0080      	lsls	r0, r0, #2
 8000654:	f000 fcfc 	bl	8001050 <HAL_PWREx_ControlVoltageScaling>

  /** Initializes the RCC Oscillators according to the specified parameters
  * in the RCC_OscInitTypeDef structure.
  */
  RCC_OscInitStruct.OscillatorType = RCC_OSCILLATORTYPE_LSI|RCC_OSCILLATORTYPE_HSE;
 8000658:	23a0      	movs	r3, #160	@ 0xa0
 800065a:	2209      	movs	r2, #9
 800065c:	02db      	lsls	r3, r3, #11
 800065e:	9204      	str	r2, [sp, #16]
 8000660:	9305      	str	r3, [sp, #20]
  RCC_OscInitStruct.HSEState = RCC_HSE_BYPASS;
  RCC_OscInitStruct.LSIState = RCC_LSI_ON;
 8000662:	2301      	movs	r3, #1
 8000664:	930a      	str	r3, [sp, #40]	@ 0x28
  RCC_OscInitStruct.PLL.PLLState = RCC_PLL_ON;
  RCC_OscInitStruct.PLL.PLLSource = RCC_PLLSOURCE_HSE;
 8000666:	3302      	adds	r3, #2
 8000668:	930c      	str	r3, [sp, #48]	@ 0x30
  RCC_OscInitStruct.PLL.PLLM = RCC_PLLM_DIV1;
 800066a:	2300      	movs	r3, #0
 800066c:	930d      	str	r3, [sp, #52]	@ 0x34
  RCC_OscInitStruct.PLL.PLLN = 16;
 800066e:	2380      	movs	r3, #128	@ 0x80
 8000670:	2210      	movs	r2, #16
 8000672:	029b      	lsls	r3, r3, #10
 8000674:	920e      	str	r2, [sp, #56]	@ 0x38
 8000676:	930f      	str	r3, [sp, #60]	@ 0x3c
  RCC_OscInitStruct.PLL.PLLP = RCC_PLLP_DIV2;
  RCC_OscInitStruct.PLL.PLLR = RCC_PLLR_DIV8;
 8000678:	23e0      	movs	r3, #224	@ 0xe0
  RCC_OscInitStruct.PLL.PLLState = RCC_PLL_ON;
 800067a:	2402      	movs	r4, #2
  RCC_OscInitStruct.PLL.PLLR = RCC_PLLR_DIV8;
 800067c:	061b      	lsls	r3, r3, #24
  if (HAL_RCC_OscConfig(&RCC_OscInitStruct) != HAL_OK)
 800067e:	a804      	add	r0, sp, #16
  RCC_OscInitStruct.PLL.PLLState = RCC_PLL_ON;
 8000680:	940b      	str	r4, [sp, #44]	@ 0x2c
  RCC_OscInitStruct.PLL.PLLR = RCC_PLLR_DIV8;
 8000682:	9310      	str	r3, [sp, #64]	@ 0x40
  if (HAL_RCC_OscConfig(&RCC_OscInitStruct) != HAL_OK)
 8000684:	f000 fd14 	bl	80010b0 <HAL_RCC_OscConfig>
 8000688:	2800      	cmp	r0, #0
 800068a:	d001      	beq.n	8000690 <SystemClock_Config+0x58>
  \details Disables IRQ interrupts by setting the I-bit in the CPSR.
           Can only be executed in Privileged modes.
 */
__STATIC_FORCEINLINE void __disable_irq(void)
{
  __ASM volatile ("cpsid i" : : : "memory");
 800068c:	b672      	cpsid	i
void Error_Handler(void)
{
  /* USER CODE BEGIN Error_Handler_Debug */
  /* User can add his own implementation to report the HAL error return state */
  __disable_irq();
  while (1)
 800068e:	e7fe      	b.n	800068e <SystemClock_Config+0x56>
  RCC_ClkInitStruct.ClockType = RCC_CLOCKTYPE_HCLK|RCC_CLOCKTYPE_SYSCLK
 8000690:	2307      	movs	r3, #7
  RCC_ClkInitStruct.AHBCLKDivider = RCC_SYSCLK_DIV1;
 8000692:	9002      	str	r0, [sp, #8]
  RCC_ClkInitStruct.APB1CLKDivider = RCC_HCLK_DIV1;
 8000694:	9003      	str	r0, [sp, #12]
  if (HAL_RCC_ClockConfig(&RCC_ClkInitStruct, FLASH_LATENCY_0) != HAL_OK)
 8000696:	2100      	movs	r1, #0
 8000698:	4668      	mov	r0, sp
  RCC_ClkInitStruct.ClockType = RCC_CLOCKTYPE_HCLK|RCC_CLOCKTYPE_SYSCLK
 800069a:	9300      	str	r3, [sp, #0]
  RCC_ClkInitStruct.SYSCLKSource = RCC_SYSCLKSOURCE_PLLCLK;
 800069c:	9401      	str	r4, [sp, #4]
  if (HAL_RCC_ClockConfig(&RCC_ClkInitStruct, FLASH_LATENCY_0) != HAL_OK)
 800069e:	f000 ffb3 	bl	8001608 <HAL_RCC_ClockConfig>
 80006a2:	2800      	cmp	r0, #0
 80006a4:	d001      	beq.n	80006aa <SystemClock_Config+0x72>
 80006a6:	b672      	cpsid	i
  while (1)
 80006a8:	e7fe      	b.n	80006a8 <SystemClock_Config+0x70>
}
 80006aa:	b012      	add	sp, #72	@ 0x48
 80006ac:	bd10      	pop	{r4, pc}
 80006ae:	46c0      	nop			@ (mov r8, r8)

080006b0 <main>:
{
 80006b0:	b5f0      	push	{r4, r5, r6, r7, lr}
 80006b2:	46ce      	mov	lr, r9
 80006b4:	4647      	mov	r7, r8
 80006b6:	b580      	push	{r7, lr}
 80006b8:	b08d      	sub	sp, #52	@ 0x34
  HAL_Init();
 80006ba:	f000 fb55 	bl	8000d68 <HAL_Init>
  SystemClock_Config();
 80006be:	f7ff ffbb 	bl	8000638 <SystemClock_Config>
  GPIO_InitTypeDef GPIO_InitStruct = {0};
 80006c2:	2214      	movs	r2, #20
 80006c4:	2100      	movs	r1, #0
 80006c6:	a807      	add	r0, sp, #28
 80006c8:	f002 fc54 	bl	8002f74 <memset>
  __HAL_RCC_GPIOC_CLK_ENABLE();
 80006cc:	2204      	movs	r2, #4
  __HAL_RCC_GPIOA_CLK_ENABLE();
 80006ce:	2501      	movs	r5, #1
  __HAL_RCC_GPIOC_CLK_ENABLE();
 80006d0:	4b87      	ldr	r3, [pc, #540]	@ (80008f0 <main+0x240>)
  HAL_GPIO_WritePin(GPIOA, LED_OUT_EN_Pin|LED_OUT_CLK_Pin|LED_IN_RST_Pin, GPIO_PIN_RESET);
 80006d2:	20a0      	movs	r0, #160	@ 0xa0
  __HAL_RCC_GPIOC_CLK_ENABLE();
 80006d4:	6b59      	ldr	r1, [r3, #52]	@ 0x34
  HAL_GPIO_WritePin(GPIOA, LED_OUT_EN_Pin|LED_OUT_CLK_Pin|LED_IN_RST_Pin, GPIO_PIN_RESET);
 80006d6:	05c0      	lsls	r0, r0, #23
  __HAL_RCC_GPIOC_CLK_ENABLE();
 80006d8:	4311      	orrs	r1, r2
 80006da:	6359      	str	r1, [r3, #52]	@ 0x34
 80006dc:	6b59      	ldr	r1, [r3, #52]	@ 0x34
  GPIO_InitStruct.Pull = GPIO_NOPULL;
 80006de:	2400      	movs	r4, #0
  __HAL_RCC_GPIOC_CLK_ENABLE();
 80006e0:	400a      	ands	r2, r1
 80006e2:	9201      	str	r2, [sp, #4]
 80006e4:	9a01      	ldr	r2, [sp, #4]
  __HAL_RCC_GPIOA_CLK_ENABLE();
 80006e6:	6b5a      	ldr	r2, [r3, #52]	@ 0x34
 80006e8:	432a      	orrs	r2, r5
 80006ea:	635a      	str	r2, [r3, #52]	@ 0x34
 80006ec:	6b5a      	ldr	r2, [r3, #52]	@ 0x34
 80006ee:	402a      	ands	r2, r5
 80006f0:	9202      	str	r2, [sp, #8]
 80006f2:	9a02      	ldr	r2, [sp, #8]
  __HAL_RCC_GPIOB_CLK_ENABLE();
 80006f4:	2202      	movs	r2, #2
 80006f6:	6b59      	ldr	r1, [r3, #52]	@ 0x34
 80006f8:	4311      	orrs	r1, r2
 80006fa:	6359      	str	r1, [r3, #52]	@ 0x34
 80006fc:	6b5b      	ldr	r3, [r3, #52]	@ 0x34
  HAL_GPIO_WritePin(GPIOA, LED_OUT_EN_Pin|LED_OUT_CLK_Pin|LED_IN_RST_Pin, GPIO_PIN_RESET);
 80006fe:	2158      	movs	r1, #88	@ 0x58
  __HAL_RCC_GPIOB_CLK_ENABLE();
 8000700:	401a      	ands	r2, r3
 8000702:	9203      	str	r2, [sp, #12]
  HAL_GPIO_WritePin(GPIOA, LED_OUT_EN_Pin|LED_OUT_CLK_Pin|LED_IN_RST_Pin, GPIO_PIN_RESET);
 8000704:	2200      	movs	r2, #0
  __HAL_RCC_GPIOB_CLK_ENABLE();
 8000706:	9b03      	ldr	r3, [sp, #12]
  HAL_GPIO_WritePin(GPIOA, LED_OUT_EN_Pin|LED_OUT_CLK_Pin|LED_IN_RST_Pin, GPIO_PIN_RESET);
 8000708:	f000 fc9c 	bl	8001044 <HAL_GPIO_WritePin>
  HAL_GPIO_Init(GPIOA, &GPIO_InitStruct);
 800070c:	20a0      	movs	r0, #160	@ 0xa0
  GPIO_InitStruct.Pin = LED_OUT_EN_Pin|LED_OUT_CLK_Pin|LED_IN_RST_Pin;
 800070e:	2358      	movs	r3, #88	@ 0x58
  HAL_GPIO_Init(GPIOA, &GPIO_InitStruct);
 8000710:	a907      	add	r1, sp, #28
 8000712:	05c0      	lsls	r0, r0, #23
  GPIO_InitStruct.Pin = LED_OUT_EN_Pin|LED_OUT_CLK_Pin|LED_IN_RST_Pin;
 8000714:	9307      	str	r3, [sp, #28]
  GPIO_InitStruct.Pull = GPIO_NOPULL;
 8000716:	9409      	str	r4, [sp, #36]	@ 0x24
  GPIO_InitStruct.Speed = GPIO_SPEED_FREQ_LOW;
 8000718:	940a      	str	r4, [sp, #40]	@ 0x28
  GPIO_InitStruct.Mode = GPIO_MODE_OUTPUT_PP;
 800071a:	9508      	str	r5, [sp, #32]
  HAL_GPIO_Init(GPIOA, &GPIO_InitStruct);
 800071c:	f000 fb9a 	bl	8000e54 <HAL_GPIO_Init>
  HAL_GPIO_Init(detect_GPIO_Port, &GPIO_InitStruct);
 8000720:	4874      	ldr	r0, [pc, #464]	@ (80008f4 <main+0x244>)
 8000722:	a907      	add	r1, sp, #28
  GPIO_InitStruct.Mode = GPIO_MODE_INPUT;
 8000724:	9408      	str	r4, [sp, #32]
  GPIO_InitStruct.Pull = GPIO_NOPULL;
 8000726:	9409      	str	r4, [sp, #36]	@ 0x24
  GPIO_InitStruct.Pin = detect_Pin;
 8000728:	9507      	str	r5, [sp, #28]
  HAL_GPIO_Init(detect_GPIO_Port, &GPIO_InitStruct);
 800072a:	f000 fb93 	bl	8000e54 <HAL_GPIO_Init>
  hspi1.Instance = SPI1;
 800072e:	4872      	ldr	r0, [pc, #456]	@ (80008f8 <main+0x248>)
 8000730:	4b72      	ldr	r3, [pc, #456]	@ (80008fc <main+0x24c>)
  hspi1.Init.Direction = SPI_DIRECTION_2LINES;
 8000732:	6084      	str	r4, [r0, #8]
  hspi1.Instance = SPI1;
 8000734:	6003      	str	r3, [r0, #0]
  hspi1.Init.Mode = SPI_MODE_MASTER;
 8000736:	2382      	movs	r3, #130	@ 0x82
 8000738:	005b      	lsls	r3, r3, #1
 800073a:	6043      	str	r3, [r0, #4]
  hspi1.Init.DataSize = SPI_DATASIZE_8BIT;
 800073c:	23e0      	movs	r3, #224	@ 0xe0
 800073e:	00db      	lsls	r3, r3, #3
 8000740:	60c3      	str	r3, [r0, #12]
  hspi1.Init.NSS = SPI_NSS_SOFT;
 8000742:	2380      	movs	r3, #128	@ 0x80
 8000744:	009b      	lsls	r3, r3, #2
 8000746:	6183      	str	r3, [r0, #24]
  hspi1.Init.CRCPolynomial = 7;
 8000748:	3bfa      	subs	r3, #250	@ 0xfa
 800074a:	3bff      	subs	r3, #255	@ 0xff
 800074c:	62c3      	str	r3, [r0, #44]	@ 0x2c
  hspi1.Init.NSSPMode = SPI_NSS_PULSE_ENABLE;
 800074e:	3301      	adds	r3, #1
  hspi1.Init.CLKPolarity = SPI_POLARITY_LOW;
 8000750:	6104      	str	r4, [r0, #16]
  hspi1.Init.CLKPhase = SPI_PHASE_1EDGE;
 8000752:	6144      	str	r4, [r0, #20]
  hspi1.Init.BaudRatePrescaler = SPI_BAUDRATEPRESCALER_2;
 8000754:	61c4      	str	r4, [r0, #28]
  hspi1.Init.FirstBit = SPI_FIRSTBIT_MSB;
 8000756:	6204      	str	r4, [r0, #32]
  hspi1.Init.TIMode = SPI_TIMODE_DISABLE;
 8000758:	6244      	str	r4, [r0, #36]	@ 0x24
  hspi1.Init.CRCCalculation = SPI_CRCCALCULATION_DISABLE;
 800075a:	6284      	str	r4, [r0, #40]	@ 0x28
  hspi1.Init.CRCLength = SPI_CRC_LENGTH_DATASIZE;
 800075c:	6304      	str	r4, [r0, #48]	@ 0x30
  hspi1.Init.NSSPMode = SPI_NSS_PULSE_ENABLE;
 800075e:	6343      	str	r3, [r0, #52]	@ 0x34
  if (HAL_SPI_Init(&hspi1) != HAL_OK)
 8000760:	f001 fc8c 	bl	800207c <HAL_SPI_Init>
 8000764:	1e04      	subs	r4, r0, #0
 8000766:	d001      	beq.n	800076c <main+0xbc>
 8000768:	b672      	cpsid	i
  while (1)
 800076a:	e7fe      	b.n	800076a <main+0xba>
  RTC_TimeTypeDef sTime = {0};
 800076c:	2214      	movs	r2, #20
 800076e:	2100      	movs	r1, #0
 8000770:	a807      	add	r0, sp, #28
 8000772:	f002 fbff 	bl	8002f74 <memset>
  hrtc.Instance = RTC;
 8000776:	4d62      	ldr	r5, [pc, #392]	@ (8000900 <main+0x250>)
 8000778:	4b62      	ldr	r3, [pc, #392]	@ (8000904 <main+0x254>)
  if (HAL_RTC_Init(&hrtc) != HAL_OK)
 800077a:	0028      	movs	r0, r5
  hrtc.Instance = RTC;
 800077c:	602b      	str	r3, [r5, #0]
  hrtc.Init.AsynchPrediv = 127;
 800077e:	237f      	movs	r3, #127	@ 0x7f
 8000780:	60eb      	str	r3, [r5, #12]
  hrtc.Init.SynchPrediv = 255;
 8000782:	3380      	adds	r3, #128	@ 0x80
 8000784:	612b      	str	r3, [r5, #16]
  hrtc.Init.OutPutType = RTC_OUTPUT_TYPE_OPENDRAIN;
 8000786:	2380      	movs	r3, #128	@ 0x80
 8000788:	05db      	lsls	r3, r3, #23
  RTC_DateTypeDef sDate = {0};
 800078a:	9404      	str	r4, [sp, #16]
  hrtc.Init.HourFormat = RTC_HOURFORMAT_24;
 800078c:	60ac      	str	r4, [r5, #8]
  hrtc.Init.OutPut = RTC_OUTPUT_DISABLE;
 800078e:	616c      	str	r4, [r5, #20]
  hrtc.Init.OutPutRemap = RTC_OUTPUT_REMAP_NONE;
 8000790:	61ac      	str	r4, [r5, #24]
  hrtc.Init.OutPutPolarity = RTC_OUTPUT_POLARITY_HIGH;
 8000792:	61ec      	str	r4, [r5, #28]
  hrtc.Init.OutPutType = RTC_OUTPUT_TYPE_OPENDRAIN;
 8000794:	622b      	str	r3, [r5, #32]
  hrtc.Init.OutPutPullUp = RTC_OUTPUT_PULLUP_NONE;
 8000796:	626c      	str	r4, [r5, #36]	@ 0x24
  if (HAL_RTC_Init(&hrtc) != HAL_OK)
 8000798:	f001 f91c 	bl	80019d4 <HAL_RTC_Init>
 800079c:	2800      	cmp	r0, #0
 800079e:	d001      	beq.n	80007a4 <main+0xf4>
 80007a0:	b672      	cpsid	i
  while (1)
 80007a2:	e7fe      	b.n	80007a2 <main+0xf2>
  sTime.Hours = 0x17;
 80007a4:	466a      	mov	r2, sp
 80007a6:	2317      	movs	r3, #23
  sTime.Seconds = 0x0;
 80007a8:	7790      	strb	r0, [r2, #30]
  sTime.Hours = 0x17;
 80007aa:	8393      	strh	r3, [r2, #28]
  if (HAL_RTC_SetTime(&hrtc, &sTime, RTC_FORMAT_BCD) != HAL_OK)
 80007ac:	a907      	add	r1, sp, #28
  sTime.SubSeconds = 0x0;
 80007ae:	9008      	str	r0, [sp, #32]
  sTime.DayLightSaving = RTC_DAYLIGHTSAVING_NONE;
 80007b0:	900a      	str	r0, [sp, #40]	@ 0x28
  sTime.StoreOperation = RTC_STOREOPERATION_RESET;
 80007b2:	900b      	str	r0, [sp, #44]	@ 0x2c
  if (HAL_RTC_SetTime(&hrtc, &sTime, RTC_FORMAT_BCD) != HAL_OK)
 80007b4:	2201      	movs	r2, #1
 80007b6:	0028      	movs	r0, r5
 80007b8:	f001 f988 	bl	8001acc <HAL_RTC_SetTime>
 80007bc:	2800      	cmp	r0, #0
 80007be:	d001      	beq.n	80007c4 <main+0x114>
 80007c0:	b672      	cpsid	i
  while (1)
 80007c2:	e7fe      	b.n	80007c2 <main+0x112>
  sDate.WeekDay = RTC_WEEKDAY_MONDAY;
 80007c4:	4b50      	ldr	r3, [pc, #320]	@ (8000908 <main+0x258>)
  if (HAL_RTC_SetDate(&hrtc, &sDate, RTC_FORMAT_BCD) != HAL_OK)
 80007c6:	a904      	add	r1, sp, #16
 80007c8:	2201      	movs	r2, #1
 80007ca:	0028      	movs	r0, r5
  sDate.WeekDay = RTC_WEEKDAY_MONDAY;
 80007cc:	9304      	str	r3, [sp, #16]
  if (HAL_RTC_SetDate(&hrtc, &sDate, RTC_FORMAT_BCD) != HAL_OK)
 80007ce:	f001 fa27 	bl	8001c20 <HAL_RTC_SetDate>
 80007d2:	1e01      	subs	r1, r0, #0
 80007d4:	d001      	beq.n	80007da <main+0x12a>
 80007d6:	b672      	cpsid	i
  while (1)
 80007d8:	e7fe      	b.n	80007d8 <main+0x128>
  if (HAL_RTCEx_SetWakeUpTimer(&hrtc, 0, RTC_WAKEUPCLOCK_RTCCLK_DIV16) != HAL_OK)
 80007da:	0002      	movs	r2, r0
 80007dc:	0028      	movs	r0, r5
 80007de:	f001 fab9 	bl	8001d54 <HAL_RTCEx_SetWakeUpTimer>
 80007e2:	2800      	cmp	r0, #0
 80007e4:	d001      	beq.n	80007ea <main+0x13a>
 80007e6:	b672      	cpsid	i
  while (1)
 80007e8:	e7fe      	b.n	80007e8 <main+0x138>
  huart1.Instance = USART1;
 80007ea:	4c48      	ldr	r4, [pc, #288]	@ (800090c <main+0x25c>)
 80007ec:	4b48      	ldr	r3, [pc, #288]	@ (8000910 <main+0x260>)
  huart1.Init.Mode = UART_MODE_TX_RX;
 80007ee:	260c      	movs	r6, #12
  huart1.Instance = USART1;
 80007f0:	6023      	str	r3, [r4, #0]
  huart1.Init.BaudRate = 115200;
 80007f2:	23e1      	movs	r3, #225	@ 0xe1
  huart1.Init.WordLength = UART_WORDLENGTH_8B;
 80007f4:	60a0      	str	r0, [r4, #8]
  huart1.Init.BaudRate = 115200;
 80007f6:	025b      	lsls	r3, r3, #9
  huart1.Init.StopBits = UART_STOPBITS_1;
 80007f8:	60e0      	str	r0, [r4, #12]
  huart1.Init.Parity = UART_PARITY_NONE;
 80007fa:	6120      	str	r0, [r4, #16]
  huart1.Init.HwFlowCtl = UART_HWCONTROL_NONE;
 80007fc:	61a0      	str	r0, [r4, #24]
  huart1.Init.OverSampling = UART_OVERSAMPLING_16;
 80007fe:	61e0      	str	r0, [r4, #28]
  huart1.Init.OneBitSampling = UART_ONE_BIT_SAMPLE_DISABLE;
 8000800:	6220      	str	r0, [r4, #32]
  huart1.Init.ClockPrescaler = UART_PRESCALER_DIV1;
 8000802:	6260      	str	r0, [r4, #36]	@ 0x24
  huart1.AdvancedInit.AdvFeatureInit = UART_ADVFEATURE_NO_INIT;
 8000804:	62a0      	str	r0, [r4, #40]	@ 0x28
  if (HAL_UART_Init(&huart1) != HAL_OK)
 8000806:	0020      	movs	r0, r4
  huart1.Init.BaudRate = 115200;
 8000808:	6063      	str	r3, [r4, #4]
  huart1.Init.Mode = UART_MODE_TX_RX;
 800080a:	6166      	str	r6, [r4, #20]
  if (HAL_UART_Init(&huart1) != HAL_OK)
 800080c:	f002 fa0e 	bl	8002c2c <HAL_UART_Init>
 8000810:	1e01      	subs	r1, r0, #0
 8000812:	d001      	beq.n	8000818 <main+0x168>
 8000814:	b672      	cpsid	i
  while (1)
 8000816:	e7fe      	b.n	8000816 <main+0x166>
  if (HAL_UARTEx_SetTxFifoThreshold(&huart1, UART_TXFIFO_THRESHOLD_1_8) != HAL_OK)
 8000818:	0020      	movs	r0, r4
 800081a:	f002 fb09 	bl	8002e30 <HAL_UARTEx_SetTxFifoThreshold>
 800081e:	1e01      	subs	r1, r0, #0
 8000820:	d001      	beq.n	8000826 <main+0x176>
 8000822:	b672      	cpsid	i
  while (1)
 8000824:	e7fe      	b.n	8000824 <main+0x174>
  if (HAL_UARTEx_SetRxFifoThreshold(&huart1, UART_RXFIFO_THRESHOLD_1_8) != HAL_OK)
 8000826:	0020      	movs	r0, r4
 8000828:	f002 fb52 	bl	8002ed0 <HAL_UARTEx_SetRxFifoThreshold>
 800082c:	2800      	cmp	r0, #0
 800082e:	d001      	beq.n	8000834 <main+0x184>
 8000830:	b672      	cpsid	i
  while (1)
 8000832:	e7fe      	b.n	8000832 <main+0x182>
  if (HAL_UARTEx_DisableFifoMode(&huart1) != HAL_OK)
 8000834:	0020      	movs	r0, r4
 8000836:	f002 fadf 	bl	8002df8 <HAL_UARTEx_DisableFifoMode>
 800083a:	1e05      	subs	r5, r0, #0
 800083c:	d001      	beq.n	8000842 <main+0x192>
 800083e:	b672      	cpsid	i
  while (1)
 8000840:	e7fe      	b.n	8000840 <main+0x190>
  TIM_ClockConfigTypeDef sClockSourceConfig = {0};
 8000842:	0001      	movs	r1, r0
 8000844:	2210      	movs	r2, #16
 8000846:	a807      	add	r0, sp, #28
 8000848:	f002 fb94 	bl	8002f74 <memset>
  TIM_MasterConfigTypeDef sMasterConfig = {0};
 800084c:	0032      	movs	r2, r6
 800084e:	0029      	movs	r1, r5
 8000850:	a804      	add	r0, sp, #16
 8000852:	f002 fb8f 	bl	8002f74 <memset>
  htim1.Instance = TIM1;
 8000856:	4c2f      	ldr	r4, [pc, #188]	@ (8000914 <main+0x264>)
 8000858:	4b2f      	ldr	r3, [pc, #188]	@ (8000918 <main+0x268>)
  if (HAL_TIM_Base_Init(&htim1) != HAL_OK)
 800085a:	0020      	movs	r0, r4
  htim1.Instance = TIM1;
 800085c:	6023      	str	r3, [r4, #0]
  htim1.Init.Prescaler = 15;
 800085e:	230f      	movs	r3, #15
 8000860:	6063      	str	r3, [r4, #4]
  htim1.Init.Period = 498;
 8000862:	33e4      	adds	r3, #228	@ 0xe4
 8000864:	33ff      	adds	r3, #255	@ 0xff
 8000866:	60e3      	str	r3, [r4, #12]
  htim1.Init.AutoReloadPreload = TIM_AUTORELOAD_PRELOAD_ENABLE;
 8000868:	3b73      	subs	r3, #115	@ 0x73
 800086a:	3bff      	subs	r3, #255	@ 0xff
  htim1.Init.CounterMode = TIM_COUNTERMODE_UP;
 800086c:	60a5      	str	r5, [r4, #8]
  htim1.Init.ClockDivision = TIM_CLOCKDIVISION_DIV1;
 800086e:	6125      	str	r5, [r4, #16]
  htim1.Init.RepetitionCounter = 0;
 8000870:	6165      	str	r5, [r4, #20]
  htim1.Init.AutoReloadPreload = TIM_AUTORELOAD_PRELOAD_ENABLE;
 8000872:	61a3      	str	r3, [r4, #24]
  if (HAL_TIM_Base_Init(&htim1) != HAL_OK)
 8000874:	f001 fdb8 	bl	80023e8 <HAL_TIM_Base_Init>
 8000878:	2800      	cmp	r0, #0
 800087a:	d001      	beq.n	8000880 <main+0x1d0>
 800087c:	b672      	cpsid	i
  while (1)
 800087e:	e7fe      	b.n	800087e <main+0x1ce>
  sClockSourceConfig.ClockSource = TIM_CLOCKSOURCE_INTERNAL;
 8000880:	2380      	movs	r3, #128	@ 0x80
  if (HAL_TIM_ConfigClockSource(&htim1, &sClockSourceConfig) != HAL_OK)
 8000882:	0020      	movs	r0, r4
  sClockSourceConfig.ClockSource = TIM_CLOCKSOURCE_INTERNAL;
 8000884:	015b      	lsls	r3, r3, #5
  if (HAL_TIM_ConfigClockSource(&htim1, &sClockSourceConfig) != HAL_OK)
 8000886:	a907      	add	r1, sp, #28
  sClockSourceConfig.ClockSource = TIM_CLOCKSOURCE_INTERNAL;
 8000888:	9307      	str	r3, [sp, #28]
  if (HAL_TIM_ConfigClockSource(&htim1, &sClockSourceConfig) != HAL_OK)
 800088a:	f001 fe5b 	bl	8002544 <HAL_TIM_ConfigClockSource>
 800088e:	2800      	cmp	r0, #0
 8000890:	d001      	beq.n	8000896 <main+0x1e6>
 8000892:	b672      	cpsid	i
  while (1)
 8000894:	e7fe      	b.n	8000894 <main+0x1e4>
  sMasterConfig.MasterOutputTrigger = TIM_TRGO_RESET;
 8000896:	9004      	str	r0, [sp, #16]
  sMasterConfig.MasterOutputTrigger2 = TIM_TRGO2_RESET;
 8000898:	9005      	str	r0, [sp, #20]
  sMasterConfig.MasterSlaveMode = TIM_MASTERSLAVEMODE_DISABLE;
 800089a:	9006      	str	r0, [sp, #24]
  if (HAL_TIMEx_MasterConfigSynchronization(&htim1, &sMasterConfig) != HAL_OK)
 800089c:	a904      	add	r1, sp, #16
 800089e:	0020      	movs	r0, r4
 80008a0:	f001 ffcc 	bl	800283c <HAL_TIMEx_MasterConfigSynchronization>
 80008a4:	2800      	cmp	r0, #0
 80008a6:	d001      	beq.n	80008ac <main+0x1fc>
 80008a8:	b672      	cpsid	i
  while (1)
 80008aa:	e7fe      	b.n	80008aa <main+0x1fa>
  LED_Init();
 80008ac:	f7ff fd9e 	bl	80003ec <LED_Init>
  HAL_TIM_Base_Start_IT(&htim1);
 80008b0:	0020      	movs	r0, r4
 80008b2:	f001 fe19 	bl	80024e8 <HAL_TIM_Base_Start_IT>
  LED_Color red[16] = {1,1,1,1,1,1};
 80008b6:	4b19      	ldr	r3, [pc, #100]	@ (800091c <main+0x26c>)
 80008b8:	4e19      	ldr	r6, [pc, #100]	@ (8000920 <main+0x270>)
 80008ba:	4699      	mov	r9, r3
	int curr = (HAL_GPIO_ReadPin(detect_GPIO_Port, detect_Pin));
 80008bc:	2301      	movs	r3, #1
 80008be:	4698      	mov	r8, r3
 80008c0:	4d18      	ldr	r5, [pc, #96]	@ (8000924 <main+0x274>)
 80008c2:	4f19      	ldr	r7, [pc, #100]	@ (8000928 <main+0x278>)
 80008c4:	4c19      	ldr	r4, [pc, #100]	@ (800092c <main+0x27c>)
 80008c6:	4641      	mov	r1, r8
 80008c8:	480a      	ldr	r0, [pc, #40]	@ (80008f4 <main+0x244>)
 80008ca:	f000 fbb5 	bl	8001038 <HAL_GPIO_ReadPin>
	if (prev == 1 && curr == 0)
 80008ce:	6832      	ldr	r2, [r6, #0]
 80008d0:	2a01      	cmp	r2, #1
 80008d2:	d001      	beq.n	80008d8 <main+0x228>
	prev = curr;
 80008d4:	6030      	str	r0, [r6, #0]
  {
 80008d6:	e7f6      	b.n	80008c6 <main+0x216>
	if (prev == 1 && curr == 0)
 80008d8:	2800      	cmp	r0, #0
 80008da:	d1fb      	bne.n	80008d4 <main+0x224>
		cnt ++;
 80008dc:	682b      	ldr	r3, [r5, #0]
	prev = curr;
 80008de:	6030      	str	r0, [r6, #0]
		cnt ++;
 80008e0:	3301      	adds	r3, #1
 80008e2:	602b      	str	r3, [r5, #0]
		newflag = 1;
 80008e4:	464b      	mov	r3, r9
 80008e6:	601a      	str	r2, [r3, #0]
		counter = now_counter;
 80008e8:	6823      	ldr	r3, [r4, #0]
		now_counter = 0;
 80008ea:	6020      	str	r0, [r4, #0]
		counter = now_counter;
 80008ec:	603b      	str	r3, [r7, #0]
  while (1)
 80008ee:	e7ea      	b.n	80008c6 <main+0x216>
 80008f0:	40021000 	.word	0x40021000
 80008f4:	50000400 	.word	0x50000400
 80008f8:	200007b4 	.word	0x200007b4
 80008fc:	40013000 	.word	0x40013000
 8000900:	20000818 	.word	0x20000818
 8000904:	40002800 	.word	0x40002800
 8000908:	24080701 	.word	0x24080701
 800090c:	200006d4 	.word	0x200006d4
 8000910:	40013800 	.word	0x40013800
 8000914:	20000768 	.word	0x20000768
 8000918:	40012c00 	.word	0x40012c00
 800091c:	2000069c 	.word	0x2000069c
 8000920:	20000690 	.word	0x20000690
 8000924:	20000694 	.word	0x20000694
 8000928:	200006b0 	.word	0x200006b0
 800092c:	200006ac 	.word	0x200006ac

08000930 <Error_Handler>:
 8000930:	b672      	cpsid	i
  while (1)
 8000932:	e7fe      	b.n	8000932 <Error_Handler+0x2>

08000934 <HAL_MspInit>:

  /* USER CODE BEGIN MspInit 0 */

  /* USER CODE END MspInit 0 */

  __HAL_RCC_SYSCFG_CLK_ENABLE();
 8000934:	2201      	movs	r2, #1
 8000936:	4b0a      	ldr	r3, [pc, #40]	@ (8000960 <HAL_MspInit+0x2c>)
{
 8000938:	b082      	sub	sp, #8
  __HAL_RCC_SYSCFG_CLK_ENABLE();
 800093a:	6c19      	ldr	r1, [r3, #64]	@ 0x40
 800093c:	4311      	orrs	r1, r2
 800093e:	6419      	str	r1, [r3, #64]	@ 0x40
 8000940:	6c19      	ldr	r1, [r3, #64]	@ 0x40
 8000942:	400a      	ands	r2, r1
  __HAL_RCC_PWR_CLK_ENABLE();
 8000944:	2180      	movs	r1, #128	@ 0x80
  __HAL_RCC_SYSCFG_CLK_ENABLE();
 8000946:	9200      	str	r2, [sp, #0]
 8000948:	9a00      	ldr	r2, [sp, #0]
  __HAL_RCC_PWR_CLK_ENABLE();
 800094a:	6bda      	ldr	r2, [r3, #60]	@ 0x3c
 800094c:	0549      	lsls	r1, r1, #21
 800094e:	430a      	orrs	r2, r1
 8000950:	63da      	str	r2, [r3, #60]	@ 0x3c
 8000952:	6bdb      	ldr	r3, [r3, #60]	@ 0x3c
 8000954:	400b      	ands	r3, r1
 8000956:	9301      	str	r3, [sp, #4]
 8000958:	9b01      	ldr	r3, [sp, #4]
  /* System interrupt init*/

  /* USER CODE BEGIN MspInit 1 */

  /* USER CODE END MspInit 1 */
}
 800095a:	b002      	add	sp, #8
 800095c:	4770      	bx	lr
 800095e:	46c0      	nop			@ (mov r8, r8)
 8000960:	40021000 	.word	0x40021000

08000964 <HAL_RTC_MspInit>:
* This function configures the hardware resources used in this example
* @param hrtc: RTC handle pointer
* @retval None
*/
void HAL_RTC_MspInit(RTC_HandleTypeDef* hrtc)
{
 8000964:	b510      	push	{r4, lr}
 8000966:	0004      	movs	r4, r0
 8000968:	b088      	sub	sp, #32
  RCC_PeriphCLKInitTypeDef PeriphClkInit = {0};
 800096a:	2218      	movs	r2, #24
 800096c:	2100      	movs	r1, #0
 800096e:	a802      	add	r0, sp, #8
 8000970:	f002 fb00 	bl	8002f74 <memset>
  if(hrtc->Instance==RTC)
 8000974:	4b11      	ldr	r3, [pc, #68]	@ (80009bc <HAL_RTC_MspInit+0x58>)
 8000976:	6822      	ldr	r2, [r4, #0]
 8000978:	429a      	cmp	r2, r3
 800097a:	d001      	beq.n	8000980 <HAL_RTC_MspInit+0x1c>
  /* USER CODE BEGIN RTC_MspInit 1 */

  /* USER CODE END RTC_MspInit 1 */
  }

}
 800097c:	b008      	add	sp, #32
 800097e:	bd10      	pop	{r4, pc}
    PeriphClkInit.PeriphClockSelection = RCC_PERIPHCLK_RTC;
 8000980:	2380      	movs	r3, #128	@ 0x80
 8000982:	029b      	lsls	r3, r3, #10
 8000984:	9302      	str	r3, [sp, #8]
    PeriphClkInit.RTCClockSelection = RCC_RTCCLKSOURCE_LSI;
 8000986:	2380      	movs	r3, #128	@ 0x80
    if (HAL_RCCEx_PeriphCLKConfig(&PeriphClkInit) != HAL_OK)
 8000988:	a802      	add	r0, sp, #8
    PeriphClkInit.RTCClockSelection = RCC_RTCCLKSOURCE_LSI;
 800098a:	009b      	lsls	r3, r3, #2
 800098c:	9307      	str	r3, [sp, #28]
    if (HAL_RCCEx_PeriphCLKConfig(&PeriphClkInit) != HAL_OK)
 800098e:	f000 ff17 	bl	80017c0 <HAL_RCCEx_PeriphCLKConfig>
 8000992:	2800      	cmp	r0, #0
 8000994:	d10f      	bne.n	80009b6 <HAL_RTC_MspInit+0x52>
    __HAL_RCC_RTC_ENABLE();
 8000996:	2280      	movs	r2, #128	@ 0x80
 8000998:	4b09      	ldr	r3, [pc, #36]	@ (80009c0 <HAL_RTC_MspInit+0x5c>)
 800099a:	0212      	lsls	r2, r2, #8
 800099c:	6dd9      	ldr	r1, [r3, #92]	@ 0x5c
 800099e:	430a      	orrs	r2, r1
    __HAL_RCC_RTCAPB_CLK_ENABLE();
 80009a0:	2180      	movs	r1, #128	@ 0x80
    __HAL_RCC_RTC_ENABLE();
 80009a2:	65da      	str	r2, [r3, #92]	@ 0x5c
    __HAL_RCC_RTCAPB_CLK_ENABLE();
 80009a4:	6bda      	ldr	r2, [r3, #60]	@ 0x3c
 80009a6:	00c9      	lsls	r1, r1, #3
 80009a8:	430a      	orrs	r2, r1
 80009aa:	63da      	str	r2, [r3, #60]	@ 0x3c
 80009ac:	6bdb      	ldr	r3, [r3, #60]	@ 0x3c
 80009ae:	400b      	ands	r3, r1
 80009b0:	9301      	str	r3, [sp, #4]
 80009b2:	9b01      	ldr	r3, [sp, #4]
}
 80009b4:	e7e2      	b.n	800097c <HAL_RTC_MspInit+0x18>
      Error_Handler();
 80009b6:	f7ff ffbb 	bl	8000930 <Error_Handler>
 80009ba:	e7ec      	b.n	8000996 <HAL_RTC_MspInit+0x32>
 80009bc:	40002800 	.word	0x40002800
 80009c0:	40021000 	.word	0x40021000

080009c4 <HAL_SPI_MspInit>:
* This function configures the hardware resources used in this example
* @param hspi: SPI handle pointer
* @retval None
*/
void HAL_SPI_MspInit(SPI_HandleTypeDef* hspi)
{
 80009c4:	b510      	push	{r4, lr}
 80009c6:	0004      	movs	r4, r0
 80009c8:	b088      	sub	sp, #32
  GPIO_InitTypeDef GPIO_InitStruct = {0};
 80009ca:	2214      	movs	r2, #20
 80009cc:	2100      	movs	r1, #0
 80009ce:	a802      	add	r0, sp, #8
 80009d0:	f002 fad0 	bl	8002f74 <memset>
  if(hspi->Instance==SPI1)
 80009d4:	4b10      	ldr	r3, [pc, #64]	@ (8000a18 <HAL_SPI_MspInit+0x54>)
 80009d6:	6822      	ldr	r2, [r4, #0]
 80009d8:	429a      	cmp	r2, r3
 80009da:	d001      	beq.n	80009e0 <HAL_SPI_MspInit+0x1c>
  /* USER CODE BEGIN SPI1_MspInit 1 */

  /* USER CODE END SPI1_MspInit 1 */
  }

}
 80009dc:	b008      	add	sp, #32
 80009de:	bd10      	pop	{r4, pc}
    __HAL_RCC_SPI1_CLK_ENABLE();
 80009e0:	2180      	movs	r1, #128	@ 0x80
 80009e2:	4b0e      	ldr	r3, [pc, #56]	@ (8000a1c <HAL_SPI_MspInit+0x58>)
 80009e4:	0149      	lsls	r1, r1, #5
 80009e6:	6c1a      	ldr	r2, [r3, #64]	@ 0x40
    HAL_GPIO_Init(GPIOA, &GPIO_InitStruct);
 80009e8:	20a0      	movs	r0, #160	@ 0xa0
    __HAL_RCC_SPI1_CLK_ENABLE();
 80009ea:	430a      	orrs	r2, r1
 80009ec:	641a      	str	r2, [r3, #64]	@ 0x40
 80009ee:	6c1a      	ldr	r2, [r3, #64]	@ 0x40
    HAL_GPIO_Init(GPIOA, &GPIO_InitStruct);
 80009f0:	05c0      	lsls	r0, r0, #23
    __HAL_RCC_SPI1_CLK_ENABLE();
 80009f2:	400a      	ands	r2, r1
 80009f4:	9200      	str	r2, [sp, #0]
 80009f6:	9a00      	ldr	r2, [sp, #0]
    __HAL_RCC_GPIOA_CLK_ENABLE();
 80009f8:	2201      	movs	r2, #1
 80009fa:	6b59      	ldr	r1, [r3, #52]	@ 0x34
 80009fc:	4311      	orrs	r1, r2
 80009fe:	6359      	str	r1, [r3, #52]	@ 0x34
 8000a00:	6b5b      	ldr	r3, [r3, #52]	@ 0x34
    HAL_GPIO_Init(GPIOA, &GPIO_InitStruct);
 8000a02:	a902      	add	r1, sp, #8
    __HAL_RCC_GPIOA_CLK_ENABLE();
 8000a04:	401a      	ands	r2, r3
 8000a06:	9201      	str	r2, [sp, #4]
 8000a08:	9b01      	ldr	r3, [sp, #4]
    GPIO_InitStruct.Pin = LED_MOSI_Pin|LED_SCK_Pin;
 8000a0a:	2224      	movs	r2, #36	@ 0x24
 8000a0c:	2302      	movs	r3, #2
 8000a0e:	9202      	str	r2, [sp, #8]
 8000a10:	9303      	str	r3, [sp, #12]
    HAL_GPIO_Init(GPIOA, &GPIO_InitStruct);
 8000a12:	f000 fa1f 	bl	8000e54 <HAL_GPIO_Init>
}
 8000a16:	e7e1      	b.n	80009dc <HAL_SPI_MspInit+0x18>
 8000a18:	40013000 	.word	0x40013000
 8000a1c:	40021000 	.word	0x40021000

08000a20 <HAL_TIM_Base_MspInit>:
* This function configures the hardware resources used in this example
* @param htim_base: TIM_Base handle pointer
* @retval None
*/
void HAL_TIM_Base_MspInit(TIM_HandleTypeDef* htim_base)
{
 8000a20:	b500      	push	{lr}
  if(htim_base->Instance==TIM1)
 8000a22:	4b0d      	ldr	r3, [pc, #52]	@ (8000a58 <HAL_TIM_Base_MspInit+0x38>)
 8000a24:	6802      	ldr	r2, [r0, #0]
{
 8000a26:	b083      	sub	sp, #12
  if(htim_base->Instance==TIM1)
 8000a28:	429a      	cmp	r2, r3
 8000a2a:	d001      	beq.n	8000a30 <HAL_TIM_Base_MspInit+0x10>
  /* USER CODE BEGIN TIM1_MspInit 1 */

  /* USER CODE END TIM1_MspInit 1 */
  }

}
 8000a2c:	b003      	add	sp, #12
 8000a2e:	bd00      	pop	{pc}
    __HAL_RCC_TIM1_CLK_ENABLE();
 8000a30:	2180      	movs	r1, #128	@ 0x80
 8000a32:	4b0a      	ldr	r3, [pc, #40]	@ (8000a5c <HAL_TIM_Base_MspInit+0x3c>)
 8000a34:	0109      	lsls	r1, r1, #4
 8000a36:	6c1a      	ldr	r2, [r3, #64]	@ 0x40
    HAL_NVIC_SetPriority(TIM1_BRK_UP_TRG_COM_IRQn, 0, 0);
 8000a38:	200d      	movs	r0, #13
    __HAL_RCC_TIM1_CLK_ENABLE();
 8000a3a:	430a      	orrs	r2, r1
 8000a3c:	641a      	str	r2, [r3, #64]	@ 0x40
 8000a3e:	6c1b      	ldr	r3, [r3, #64]	@ 0x40
    HAL_NVIC_SetPriority(TIM1_BRK_UP_TRG_COM_IRQn, 0, 0);
 8000a40:	2200      	movs	r2, #0
    __HAL_RCC_TIM1_CLK_ENABLE();
 8000a42:	400b      	ands	r3, r1
 8000a44:	9301      	str	r3, [sp, #4]
    HAL_NVIC_SetPriority(TIM1_BRK_UP_TRG_COM_IRQn, 0, 0);
 8000a46:	2100      	movs	r1, #0
    __HAL_RCC_TIM1_CLK_ENABLE();
 8000a48:	9b01      	ldr	r3, [sp, #4]
    HAL_NVIC_SetPriority(TIM1_BRK_UP_TRG_COM_IRQn, 0, 0);
 8000a4a:	f000 f9b3 	bl	8000db4 <HAL_NVIC_SetPriority>
    HAL_NVIC_EnableIRQ(TIM1_BRK_UP_TRG_COM_IRQn);
 8000a4e:	200d      	movs	r0, #13
 8000a50:	f000 f9da 	bl	8000e08 <HAL_NVIC_EnableIRQ>
}
 8000a54:	e7ea      	b.n	8000a2c <HAL_TIM_Base_MspInit+0xc>
 8000a56:	46c0      	nop			@ (mov r8, r8)
 8000a58:	40012c00 	.word	0x40012c00
 8000a5c:	40021000 	.word	0x40021000

08000a60 <HAL_UART_MspInit>:
* This function configures the hardware resources used in this example
* @param huart: UART handle pointer
* @retval None
*/
void HAL_UART_MspInit(UART_HandleTypeDef* huart)
{
 8000a60:	b510      	push	{r4, lr}
 8000a62:	0004      	movs	r4, r0
 8000a64:	b08e      	sub	sp, #56	@ 0x38
  GPIO_InitTypeDef GPIO_InitStruct = {0};
 8000a66:	2214      	movs	r2, #20
 8000a68:	2100      	movs	r1, #0
 8000a6a:	a802      	add	r0, sp, #8
 8000a6c:	f002 fa82 	bl	8002f74 <memset>
  RCC_PeriphCLKInitTypeDef PeriphClkInit = {0};
 8000a70:	2218      	movs	r2, #24
 8000a72:	2100      	movs	r1, #0
 8000a74:	a808      	add	r0, sp, #32
 8000a76:	f002 fa7d 	bl	8002f74 <memset>
  if(huart->Instance==USART1)
 8000a7a:	4b19      	ldr	r3, [pc, #100]	@ (8000ae0 <HAL_UART_MspInit+0x80>)
 8000a7c:	6822      	ldr	r2, [r4, #0]
 8000a7e:	429a      	cmp	r2, r3
 8000a80:	d001      	beq.n	8000a86 <HAL_UART_MspInit+0x26>
  /* USER CODE BEGIN USART1_MspInit 1 */

  /* USER CODE END USART1_MspInit 1 */
  }

}
 8000a82:	b00e      	add	sp, #56	@ 0x38
 8000a84:	bd10      	pop	{r4, pc}
    PeriphClkInit.PeriphClockSelection = RCC_PERIPHCLK_USART1;
 8000a86:	2301      	movs	r3, #1
    if (HAL_RCCEx_PeriphCLKConfig(&PeriphClkInit) != HAL_OK)
 8000a88:	a808      	add	r0, sp, #32
    PeriphClkInit.PeriphClockSelection = RCC_PERIPHCLK_USART1;
 8000a8a:	9308      	str	r3, [sp, #32]
    if (HAL_RCCEx_PeriphCLKConfig(&PeriphClkInit) != HAL_OK)
 8000a8c:	f000 fe98 	bl	80017c0 <HAL_RCCEx_PeriphCLKConfig>
 8000a90:	2800      	cmp	r0, #0
 8000a92:	d121      	bne.n	8000ad8 <HAL_UART_MspInit+0x78>
    __HAL_RCC_USART1_CLK_ENABLE();
 8000a94:	2180      	movs	r1, #128	@ 0x80
 8000a96:	4b13      	ldr	r3, [pc, #76]	@ (8000ae4 <HAL_UART_MspInit+0x84>)
 8000a98:	01c9      	lsls	r1, r1, #7
 8000a9a:	6c1a      	ldr	r2, [r3, #64]	@ 0x40
    GPIO_InitStruct.Pin = GPIO_PIN_9|GPIO_PIN_10;
 8000a9c:	20c0      	movs	r0, #192	@ 0xc0
    __HAL_RCC_USART1_CLK_ENABLE();
 8000a9e:	430a      	orrs	r2, r1
 8000aa0:	641a      	str	r2, [r3, #64]	@ 0x40
 8000aa2:	6c1a      	ldr	r2, [r3, #64]	@ 0x40
    GPIO_InitStruct.Pin = GPIO_PIN_9|GPIO_PIN_10;
 8000aa4:	00c0      	lsls	r0, r0, #3
    __HAL_RCC_USART1_CLK_ENABLE();
 8000aa6:	400a      	ands	r2, r1
 8000aa8:	9200      	str	r2, [sp, #0]
 8000aaa:	9a00      	ldr	r2, [sp, #0]
    __HAL_RCC_GPIOA_CLK_ENABLE();
 8000aac:	2201      	movs	r2, #1
 8000aae:	6b59      	ldr	r1, [r3, #52]	@ 0x34
 8000ab0:	4311      	orrs	r1, r2
 8000ab2:	6359      	str	r1, [r3, #52]	@ 0x34
    GPIO_InitStruct.Pin = GPIO_PIN_9|GPIO_PIN_10;
 8000ab4:	2102      	movs	r1, #2
    __HAL_RCC_GPIOA_CLK_ENABLE();
 8000ab6:	6b5b      	ldr	r3, [r3, #52]	@ 0x34
    GPIO_InitStruct.Pin = GPIO_PIN_9|GPIO_PIN_10;
 8000ab8:	9002      	str	r0, [sp, #8]
 8000aba:	9103      	str	r1, [sp, #12]
 8000abc:	2000      	movs	r0, #0
 8000abe:	2100      	movs	r1, #0
 8000ac0:	9004      	str	r0, [sp, #16]
 8000ac2:	9105      	str	r1, [sp, #20]
    HAL_GPIO_Init(GPIOA, &GPIO_InitStruct);
 8000ac4:	20a0      	movs	r0, #160	@ 0xa0
    __HAL_RCC_GPIOA_CLK_ENABLE();
 8000ac6:	4013      	ands	r3, r2
 8000ac8:	9301      	str	r3, [sp, #4]
    HAL_GPIO_Init(GPIOA, &GPIO_InitStruct);
 8000aca:	a902      	add	r1, sp, #8
 8000acc:	05c0      	lsls	r0, r0, #23
    __HAL_RCC_GPIOA_CLK_ENABLE();
 8000ace:	9b01      	ldr	r3, [sp, #4]
    GPIO_InitStruct.Alternate = GPIO_AF1_USART1;
 8000ad0:	9206      	str	r2, [sp, #24]
    HAL_GPIO_Init(GPIOA, &GPIO_InitStruct);
 8000ad2:	f000 f9bf 	bl	8000e54 <HAL_GPIO_Init>
}
 8000ad6:	e7d4      	b.n	8000a82 <HAL_UART_MspInit+0x22>
      Error_Handler();
 8000ad8:	f7ff ff2a 	bl	8000930 <Error_Handler>
 8000adc:	e7da      	b.n	8000a94 <HAL_UART_MspInit+0x34>
 8000ade:	46c0      	nop			@ (mov r8, r8)
 8000ae0:	40013800 	.word	0x40013800
 8000ae4:	40021000 	.word	0x40021000

08000ae8 <NMI_Handler>:
{
  /* USER CODE BEGIN NonMaskableInt_IRQn 0 */

  /* USER CODE END NonMaskableInt_IRQn 0 */
  /* USER CODE BEGIN NonMaskableInt_IRQn 1 */
   while (1)
 8000ae8:	e7fe      	b.n	8000ae8 <NMI_Handler>
 8000aea:	46c0      	nop			@ (mov r8, r8)

08000aec <HardFault_Handler>:
void HardFault_Handler(void)
{
  /* USER CODE BEGIN HardFault_IRQn 0 */

  /* USER CODE END HardFault_IRQn 0 */
  while (1)
 8000aec:	e7fe      	b.n	8000aec <HardFault_Handler>
 8000aee:	46c0      	nop			@ (mov r8, r8)

08000af0 <SVC_Handler>:

  /* USER CODE END SVC_IRQn 0 */
  /* USER CODE BEGIN SVC_IRQn 1 */

  /* USER CODE END SVC_IRQn 1 */
}
 8000af0:	4770      	bx	lr
 8000af2:	46c0      	nop			@ (mov r8, r8)

08000af4 <PendSV_Handler>:

/**
  * @brief This function handles Pendable request for system service.
  */
void PendSV_Handler(void)
 8000af4:	4770      	bx	lr
 8000af6:	46c0      	nop			@ (mov r8, r8)

08000af8 <SysTick_Handler>:

/**
  * @brief This function handles System tick timer.
  */
void SysTick_Handler(void)
{
 8000af8:	b570      	push	{r4, r5, r6, lr}
  /* USER CODE BEGIN SysTick_IRQn 0 */

  /* USER CODE END SysTick_IRQn 0 */
  HAL_IncTick();
 8000afa:	f000 f949 	bl	8000d90 <HAL_IncTick>
  /* USER CODE BEGIN SysTick_IRQn 1 */
  now_counter++;
 8000afe:	4a32      	ldr	r2, [pc, #200]	@ (8000bc8 <SysTick_Handler+0xd0>)
 8000b00:	6813      	ldr	r3, [r2, #0]
 8000b02:	3301      	adds	r3, #1
 8000b04:	6013      	str	r3, [r2, #0]
  caculate_theta();
 8000b06:	f7ff fd89 	bl	800061c <caculate_theta>
  second ++;
  //flow ++;
  if(second == 1000)
 8000b0a:	21fa      	movs	r1, #250	@ 0xfa
  second ++;
 8000b0c:	4a2f      	ldr	r2, [pc, #188]	@ (8000bcc <SysTick_Handler+0xd4>)
  if(second == 1000)
 8000b0e:	0089      	lsls	r1, r1, #2
  second ++;
 8000b10:	6813      	ldr	r3, [r2, #0]
 8000b12:	3301      	adds	r3, #1
 8000b14:	6013      	str	r3, [r2, #0]
  if(second == 1000)
 8000b16:	428b      	cmp	r3, r1
 8000b18:	d03f      	beq.n	8000b9a <SysTick_Handler+0xa2>
  /*if(flow == 50)
  {
	  flow = 0;
  	  flow_number ++;
  }*/
  if(number[5] == 10)
 8000b1a:	4b2d      	ldr	r3, [pc, #180]	@ (8000bd0 <SysTick_Handler+0xd8>)
 8000b1c:	695a      	ldr	r2, [r3, #20]
  {
	  number[5] = 0;
	  number[4] ++;
 8000b1e:	6919      	ldr	r1, [r3, #16]
  if(number[5] == 10)
 8000b20:	2a0a      	cmp	r2, #10
 8000b22:	d103      	bne.n	8000b2c <SysTick_Handler+0x34>
	  number[5] = 0;
 8000b24:	2200      	movs	r2, #0
	  number[4] ++;
 8000b26:	3101      	adds	r1, #1
	  number[5] = 0;
 8000b28:	615a      	str	r2, [r3, #20]
	  number[4] ++;
 8000b2a:	6119      	str	r1, [r3, #16]
  }
  if(number[4] == 6)
  {
  	  number[4] = 0;
  	  number[3] ++;
 8000b2c:	68da      	ldr	r2, [r3, #12]
  if(number[4] == 6)
 8000b2e:	2906      	cmp	r1, #6
 8000b30:	d103      	bne.n	8000b3a <SysTick_Handler+0x42>
  	  number[4] = 0;
 8000b32:	2100      	movs	r1, #0
  	  number[3] ++;
 8000b34:	3201      	adds	r2, #1
  	  number[4] = 0;
 8000b36:	6119      	str	r1, [r3, #16]
  	  number[3] ++;
 8000b38:	60da      	str	r2, [r3, #12]
  }
  if(number[3] == 10)
 8000b3a:	2a0a      	cmp	r2, #10
 8000b3c:	d104      	bne.n	8000b48 <SysTick_Handler+0x50>
  {
  	  number[3] = 0;
 8000b3e:	2200      	movs	r2, #0
 8000b40:	60da      	str	r2, [r3, #12]
  	  number[2] ++;
 8000b42:	689a      	ldr	r2, [r3, #8]
 8000b44:	3201      	adds	r2, #1
 8000b46:	609a      	str	r2, [r3, #8]
  }


    if (newflag && cnt >= 50)
 8000b48:	4c22      	ldr	r4, [pc, #136]	@ (8000bd4 <SysTick_Handler+0xdc>)
 8000b4a:	6823      	ldr	r3, [r4, #0]
 8000b4c:	2b00      	cmp	r3, #0
 8000b4e:	d003      	beq.n	8000b58 <SysTick_Handler+0x60>
 8000b50:	4b21      	ldr	r3, [pc, #132]	@ (8000bd8 <SysTick_Handler+0xe0>)
 8000b52:	681b      	ldr	r3, [r3, #0]
 8000b54:	2b31      	cmp	r3, #49	@ 0x31
 8000b56:	dc04      	bgt.n	8000b62 <SysTick_Handler+0x6a>
  		  newflag = 0;
  	  }
  	  else if(max_counter > counter)
    	  delta ++;
    }
    run_counter ++;
 8000b58:	4a20      	ldr	r2, [pc, #128]	@ (8000bdc <SysTick_Handler+0xe4>)
 8000b5a:	6813      	ldr	r3, [r2, #0]
 8000b5c:	3301      	adds	r3, #1
 8000b5e:	6013      	str	r3, [r2, #0]
  /* USER CODE END SysTick_IRQn 1 */
}
 8000b60:	bd70      	pop	{r4, r5, r6, pc}
      if(counter >= max_counter) max_counter = counter;
 8000b62:	4b1f      	ldr	r3, [pc, #124]	@ (8000be0 <SysTick_Handler+0xe8>)
 8000b64:	491f      	ldr	r1, [pc, #124]	@ (8000be4 <SysTick_Handler+0xec>)
 8000b66:	681a      	ldr	r2, [r3, #0]
 8000b68:	680b      	ldr	r3, [r1, #0]
 8000b6a:	429a      	cmp	r2, r3
 8000b6c:	da1c      	bge.n	8000ba8 <SysTick_Handler+0xb0>
  	  else if(delta >= max_counter - counter)
 8000b6e:	4d1e      	ldr	r5, [pc, #120]	@ (8000be8 <SysTick_Handler+0xf0>)
 8000b70:	1a9b      	subs	r3, r3, r2
 8000b72:	6829      	ldr	r1, [r5, #0]
 8000b74:	428b      	cmp	r3, r1
 8000b76:	dc23      	bgt.n	8000bc0 <SysTick_Handler+0xc8>
  			  flag[i] = 0;
 8000b78:	2206      	movs	r2, #6
 8000b7a:	2100      	movs	r1, #0
 8000b7c:	481b      	ldr	r0, [pc, #108]	@ (8000bec <SysTick_Handler+0xf4>)
 8000b7e:	f002 f9f9 	bl	8002f74 <memset>
  			  row[i] = 0;
 8000b82:	2218      	movs	r2, #24
 8000b84:	2100      	movs	r1, #0
 8000b86:	481a      	ldr	r0, [pc, #104]	@ (8000bf0 <SysTick_Handler+0xf8>)
 8000b88:	f002 f9f4 	bl	8002f74 <memset>
  		  delta = 0;
 8000b8c:	2300      	movs	r3, #0
 8000b8e:	602b      	str	r3, [r5, #0]
  		  newflag = 0;
 8000b90:	2300      	movs	r3, #0
 8000b92:	4a12      	ldr	r2, [pc, #72]	@ (8000bdc <SysTick_Handler+0xe4>)
 8000b94:	6023      	str	r3, [r4, #0]
 8000b96:	3301      	adds	r3, #1
 8000b98:	e7e1      	b.n	8000b5e <SysTick_Handler+0x66>
	  second = 0;
 8000b9a:	2300      	movs	r3, #0
 8000b9c:	6013      	str	r3, [r2, #0]
	  number[5] ++;
 8000b9e:	4b0c      	ldr	r3, [pc, #48]	@ (8000bd0 <SysTick_Handler+0xd8>)
 8000ba0:	695a      	ldr	r2, [r3, #20]
 8000ba2:	3201      	adds	r2, #1
 8000ba4:	615a      	str	r2, [r3, #20]
 8000ba6:	e7ba      	b.n	8000b1e <SysTick_Handler+0x26>
      if(counter >= max_counter) max_counter = counter;
 8000ba8:	600a      	str	r2, [r1, #0]
  			  flag[i] = 0;
 8000baa:	4810      	ldr	r0, [pc, #64]	@ (8000bec <SysTick_Handler+0xf4>)
 8000bac:	2206      	movs	r2, #6
 8000bae:	2100      	movs	r1, #0
 8000bb0:	f002 f9e0 	bl	8002f74 <memset>
  			  row[i] = 0;
 8000bb4:	2218      	movs	r2, #24
 8000bb6:	2100      	movs	r1, #0
 8000bb8:	480d      	ldr	r0, [pc, #52]	@ (8000bf0 <SysTick_Handler+0xf8>)
 8000bba:	f002 f9db 	bl	8002f74 <memset>
  		  newflag = 0;
 8000bbe:	e7e7      	b.n	8000b90 <SysTick_Handler+0x98>
    	  delta ++;
 8000bc0:	3101      	adds	r1, #1
 8000bc2:	6029      	str	r1, [r5, #0]
 8000bc4:	e7c8      	b.n	8000b58 <SysTick_Handler+0x60>
 8000bc6:	46c0      	nop			@ (mov r8, r8)
 8000bc8:	200006ac 	.word	0x200006ac
 8000bcc:	2000084c 	.word	0x2000084c
 8000bd0:	20000650 	.word	0x20000650
 8000bd4:	2000069c 	.word	0x2000069c
 8000bd8:	20000694 	.word	0x20000694
 8000bdc:	200006a8 	.word	0x200006a8
 8000be0:	200006b0 	.word	0x200006b0
 8000be4:	20000698 	.word	0x20000698
 8000be8:	20000848 	.word	0x20000848
 8000bec:	200006cc 	.word	0x200006cc
 8000bf0:	200006b4 	.word	0x200006b4

08000bf4 <TIM1_BRK_UP_TRG_COM_IRQHandler>:

/**
  * @brief This function handles TIM1 break, update, trigger and commutation interrupts.
  */
void TIM1_BRK_UP_TRG_COM_IRQHandler(void)
{
 8000bf4:	b5f8      	push	{r3, r4, r5, r6, r7, lr}
 8000bf6:	46ce      	mov	lr, r9
 8000bf8:	4647      	mov	r7, r8
  /* USER CODE BEGIN TIM1_BRK_UP_TRG_COM_IRQn 0 */

  /* USER CODE END TIM1_BRK_UP_TRG_COM_IRQn 0 */
  HAL_TIM_IRQHandler(&htim1);
 8000bfa:	482a      	ldr	r0, [pc, #168]	@ (8000ca4 <TIM1_BRK_UP_TRG_COM_IRQHandler+0xb0>)
{
 8000bfc:	b580      	push	{r7, lr}
  HAL_TIM_IRQHandler(&htim1);
 8000bfe:	f001 fd63 	bl	80026c8 <HAL_TIM_IRQHandler>
  /* USER CODE BEGIN TIM1_BRK_UP_TRG_COM_IRQn 1 */


  if(flow_number == 360) flow_number = 0;
 8000c02:	22b4      	movs	r2, #180	@ 0xb4
 8000c04:	4b28      	ldr	r3, [pc, #160]	@ (8000ca8 <TIM1_BRK_UP_TRG_COM_IRQHandler+0xb4>)
 8000c06:	0052      	lsls	r2, r2, #1
 8000c08:	6819      	ldr	r1, [r3, #0]
 8000c0a:	4291      	cmp	r1, r2
 8000c0c:	d101      	bne.n	8000c12 <TIM1_BRK_UP_TRG_COM_IRQHandler+0x1e>
 8000c0e:	2200      	movs	r2, #0
 8000c10:	601a      	str	r2, [r3, #0]
	  //    flag[i] = 1;
	  //if(flag[i] == 1 && (theta <= (48 * i + flow_number) || theta > (48 * i + 48 + flow_number)))
	  if(flag[i] == 1 && (run_counter <= 6 * i || run_counter > 6 * i + 5))
	  {
		  flag[i] = 0;
		  LED_Display_Color(close);
 8000c12:	4b26      	ldr	r3, [pc, #152]	@ (8000cac <TIM1_BRK_UP_TRG_COM_IRQHandler+0xb8>)
{
 8000c14:	2400      	movs	r4, #0
		  LED_Display_Color(close);
 8000c16:	4698      	mov	r8, r3
	  }
	  if(flag[i] == 1)
	  {
		if (row[i] < 10)
		{
			LED_Display_Color(digit[number[i]][row[i]]);
 8000c18:	4b25      	ldr	r3, [pc, #148]	@ (8000cb0 <TIM1_BRK_UP_TRG_COM_IRQHandler+0xbc>)
 8000c1a:	4d26      	ldr	r5, [pc, #152]	@ (8000cb4 <TIM1_BRK_UP_TRG_COM_IRQHandler+0xc0>)
 8000c1c:	4699      	mov	r9, r3
 8000c1e:	4f26      	ldr	r7, [pc, #152]	@ (8000cb8 <TIM1_BRK_UP_TRG_COM_IRQHandler+0xc4>)
 8000c20:	4e26      	ldr	r6, [pc, #152]	@ (8000cbc <TIM1_BRK_UP_TRG_COM_IRQHandler+0xc8>)
 8000c22:	e027      	b.n	8000c74 <TIM1_BRK_UP_TRG_COM_IRQHandler+0x80>
	  if(flag[i] == 0 && run_counter > 6 * i && run_counter <= 6 * i + 5) flag[i] = 1;
 8000c24:	4b26      	ldr	r3, [pc, #152]	@ (8000cc0 <TIM1_BRK_UP_TRG_COM_IRQHandler+0xcc>)
 8000c26:	681b      	ldr	r3, [r3, #0]
 8000c28:	429c      	cmp	r4, r3
 8000c2a:	da1d      	bge.n	8000c68 <TIM1_BRK_UP_TRG_COM_IRQHandler+0x74>
 8000c2c:	1d62      	adds	r2, r4, #5
 8000c2e:	4293      	cmp	r3, r2
 8000c30:	dc1a      	bgt.n	8000c68 <TIM1_BRK_UP_TRG_COM_IRQHandler+0x74>
 8000c32:	2101      	movs	r1, #1
 8000c34:	7029      	strb	r1, [r5, #0]
	  if(flag[i] == 1 && (run_counter <= 6 * i || run_counter > 6 * i + 5))
 8000c36:	4293      	cmp	r3, r2
 8000c38:	dd07      	ble.n	8000c4a <TIM1_BRK_UP_TRG_COM_IRQHandler+0x56>
		  flag[i] = 0;
 8000c3a:	2300      	movs	r3, #0
		  LED_Display_Color(close);
 8000c3c:	4640      	mov	r0, r8
		  flag[i] = 0;
 8000c3e:	702b      	strb	r3, [r5, #0]
		  LED_Display_Color(close);
 8000c40:	f7ff fca6 	bl	8000590 <LED_Display_Color>
	  if(flag[i] == 1)
 8000c44:	782b      	ldrb	r3, [r5, #0]
 8000c46:	2b01      	cmp	r3, #1
 8000c48:	d10e      	bne.n	8000c68 <TIM1_BRK_UP_TRG_COM_IRQHandler+0x74>
		if (row[i] < 10)
 8000c4a:	6833      	ldr	r3, [r6, #0]
 8000c4c:	2b09      	cmp	r3, #9
 8000c4e:	dc1c      	bgt.n	8000c8a <TIM1_BRK_UP_TRG_COM_IRQHandler+0x96>
			LED_Display_Color(digit[number[i]][row[i]]);
 8000c50:	683a      	ldr	r2, [r7, #0]
 8000c52:	0090      	lsls	r0, r2, #2
 8000c54:	1880      	adds	r0, r0, r2
 8000c56:	0040      	lsls	r0, r0, #1
 8000c58:	18c0      	adds	r0, r0, r3
 8000c5a:	0100      	lsls	r0, r0, #4
 8000c5c:	4448      	add	r0, r9
 8000c5e:	f7ff fc97 	bl	8000590 <LED_Display_Color>
			row[i]++;
 8000c62:	6833      	ldr	r3, [r6, #0]
 8000c64:	3301      	adds	r3, #1
 8000c66:	6033      	str	r3, [r6, #0]
  for (int i = 0;i < 6;i++)
 8000c68:	3406      	adds	r4, #6
 8000c6a:	3501      	adds	r5, #1
 8000c6c:	3704      	adds	r7, #4
 8000c6e:	3604      	adds	r6, #4
 8000c70:	2c24      	cmp	r4, #36	@ 0x24
 8000c72:	d013      	beq.n	8000c9c <TIM1_BRK_UP_TRG_COM_IRQHandler+0xa8>
	  if(flag[i] == 0 && run_counter > 6 * i && run_counter <= 6 * i + 5) flag[i] = 1;
 8000c74:	782b      	ldrb	r3, [r5, #0]
 8000c76:	2b00      	cmp	r3, #0
 8000c78:	d0d4      	beq.n	8000c24 <TIM1_BRK_UP_TRG_COM_IRQHandler+0x30>
	  if(flag[i] == 1 && (run_counter <= 6 * i || run_counter > 6 * i + 5))
 8000c7a:	2b01      	cmp	r3, #1
 8000c7c:	d1f4      	bne.n	8000c68 <TIM1_BRK_UP_TRG_COM_IRQHandler+0x74>
	  if(flag[i] == 0 && run_counter > 6 * i && run_counter <= 6 * i + 5) flag[i] = 1;
 8000c7e:	4b10      	ldr	r3, [pc, #64]	@ (8000cc0 <TIM1_BRK_UP_TRG_COM_IRQHandler+0xcc>)
 8000c80:	681b      	ldr	r3, [r3, #0]
	  if(flag[i] == 1 && (run_counter <= 6 * i || run_counter > 6 * i + 5))
 8000c82:	42a3      	cmp	r3, r4
 8000c84:	ddd9      	ble.n	8000c3a <TIM1_BRK_UP_TRG_COM_IRQHandler+0x46>
 8000c86:	1d62      	adds	r2, r4, #5
 8000c88:	e7d5      	b.n	8000c36 <TIM1_BRK_UP_TRG_COM_IRQHandler+0x42>
		}
		else
		{
			LED_Display_Color(close);
 8000c8a:	4640      	mov	r0, r8
  for (int i = 0;i < 6;i++)
 8000c8c:	3406      	adds	r4, #6
			LED_Display_Color(close);
 8000c8e:	f7ff fc7f 	bl	8000590 <LED_Display_Color>
  for (int i = 0;i < 6;i++)
 8000c92:	3501      	adds	r5, #1
 8000c94:	3704      	adds	r7, #4
 8000c96:	3604      	adds	r6, #4
 8000c98:	2c24      	cmp	r4, #36	@ 0x24
 8000c9a:	d1eb      	bne.n	8000c74 <TIM1_BRK_UP_TRG_COM_IRQHandler+0x80>
		}
	  }
  }
  /* USER CODE END TIM1_BRK_UP_TRG_COM_IRQn 1 */
}
 8000c9c:	bcc0      	pop	{r6, r7}
 8000c9e:	46b9      	mov	r9, r7
 8000ca0:	46b0      	mov	r8, r6
 8000ca2:	bdf8      	pop	{r3, r4, r5, r6, r7, pc}
 8000ca4:	20000768 	.word	0x20000768
 8000ca8:	20000844 	.word	0x20000844
 8000cac:	20000000 	.word	0x20000000
 8000cb0:	20000010 	.word	0x20000010
 8000cb4:	200006cc 	.word	0x200006cc
 8000cb8:	20000650 	.word	0x20000650
 8000cbc:	200006b4 	.word	0x200006b4
 8000cc0:	200006a8 	.word	0x200006a8

08000cc4 <SystemInit>:
{
  /* Configure the Vector Table location -------------------------------------*/
#if defined(USER_VECT_TAB_ADDRESS)
  SCB->VTOR = VECT_TAB_BASE_ADDRESS | VECT_TAB_OFFSET; /* Vector Table Relocation */
#endif /* USER_VECT_TAB_ADDRESS */
}
 8000cc4:	4770      	bx	lr
 8000cc6:	46c0      	nop			@ (mov r8, r8)

08000cc8 <Reset_Handler>:
 8000cc8:	480d      	ldr	r0, [pc, #52]	@ (8000d00 <LoopForever+0x2>)
 8000cca:	4685      	mov	sp, r0
 8000ccc:	f7ff fffa 	bl	8000cc4 <SystemInit>
 8000cd0:	480c      	ldr	r0, [pc, #48]	@ (8000d04 <LoopForever+0x6>)
 8000cd2:	490d      	ldr	r1, [pc, #52]	@ (8000d08 <LoopForever+0xa>)
 8000cd4:	4a0d      	ldr	r2, [pc, #52]	@ (8000d0c <LoopForever+0xe>)
 8000cd6:	2300      	movs	r3, #0
 8000cd8:	e002      	b.n	8000ce0 <LoopCopyDataInit>

08000cda <CopyDataInit>:
 8000cda:	58d4      	ldr	r4, [r2, r3]
 8000cdc:	50c4      	str	r4, [r0, r3]
 8000cde:	3304      	adds	r3, #4

08000ce0 <LoopCopyDataInit>:
 8000ce0:	18c4      	adds	r4, r0, r3
 8000ce2:	428c      	cmp	r4, r1
 8000ce4:	d3f9      	bcc.n	8000cda <CopyDataInit>
 8000ce6:	4a0a      	ldr	r2, [pc, #40]	@ (8000d10 <LoopForever+0x12>)
 8000ce8:	4c0a      	ldr	r4, [pc, #40]	@ (8000d14 <LoopForever+0x16>)
 8000cea:	2300      	movs	r3, #0
 8000cec:	e001      	b.n	8000cf2 <LoopFillZerobss>

08000cee <FillZerobss>:
 8000cee:	6013      	str	r3, [r2, #0]
 8000cf0:	3204      	adds	r2, #4

08000cf2 <LoopFillZerobss>:
 8000cf2:	42a2      	cmp	r2, r4
 8000cf4:	d3fb      	bcc.n	8000cee <FillZerobss>
 8000cf6:	f002 f945 	bl	8002f84 <__libc_init_array>
 8000cfa:	f7ff fcd9 	bl	80006b0 <main>

08000cfe <LoopForever>:
 8000cfe:	e7fe      	b.n	8000cfe <LoopForever>
 8000d00:	20002000 	.word	0x20002000
 8000d04:	20000000 	.word	0x20000000
 8000d08:	20000674 	.word	0x20000674
 8000d0c:	08003098 	.word	0x08003098
 8000d10:	20000674 	.word	0x20000674
 8000d14:	20000854 	.word	0x20000854

08000d18 <ADC1_IRQHandler>:
 8000d18:	e7fe      	b.n	8000d18 <ADC1_IRQHandler>
	...

08000d1c <HAL_InitTick>:
  *       implementation  in user file.
  * @param TickPriority Tick interrupt priority.
  * @retval HAL status
  */
__weak HAL_StatusTypeDef HAL_InitTick(uint32_t TickPriority)
{
 8000d1c:	b570      	push	{r4, r5, r6, lr}
  HAL_StatusTypeDef  status = HAL_OK;

  /* Check uwTickFreq for MisraC 2012 (even if uwTickFreq is a enum type that doesn't take the value zero)*/ 
  if ((uint32_t)uwTickFreq != 0U)
 8000d1e:	4b0f      	ldr	r3, [pc, #60]	@ (8000d5c <HAL_InitTick+0x40>)
{
 8000d20:	0004      	movs	r4, r0
  if ((uint32_t)uwTickFreq != 0U)
 8000d22:	7819      	ldrb	r1, [r3, #0]
 8000d24:	2900      	cmp	r1, #0
 8000d26:	d101      	bne.n	8000d2c <HAL_InitTick+0x10>
        status = HAL_ERROR;
      }
    }
    else
    {
      status = HAL_ERROR;
 8000d28:	2001      	movs	r0, #1
    status = HAL_ERROR;
  }

  /* Return function status */
  return status;
}
 8000d2a:	bd70      	pop	{r4, r5, r6, pc}
    if (HAL_SYSTICK_Config(SystemCoreClock / (1000U /(uint32_t)uwTickFreq)) == 0U)
 8000d2c:	20fa      	movs	r0, #250	@ 0xfa
 8000d2e:	0080      	lsls	r0, r0, #2
 8000d30:	f7ff f9e6 	bl	8000100 <__udivsi3>
 8000d34:	4d0a      	ldr	r5, [pc, #40]	@ (8000d60 <HAL_InitTick+0x44>)
 8000d36:	0001      	movs	r1, r0
 8000d38:	6828      	ldr	r0, [r5, #0]
 8000d3a:	f7ff f9e1 	bl	8000100 <__udivsi3>
 8000d3e:	f000 f86f 	bl	8000e20 <HAL_SYSTICK_Config>
 8000d42:	2800      	cmp	r0, #0
 8000d44:	d1f0      	bne.n	8000d28 <HAL_InitTick+0xc>
      if (TickPriority < (1UL << __NVIC_PRIO_BITS))
 8000d46:	2c03      	cmp	r4, #3
 8000d48:	d8ee      	bhi.n	8000d28 <HAL_InitTick+0xc>
        HAL_NVIC_SetPriority(SysTick_IRQn, TickPriority, 0U);
 8000d4a:	3801      	subs	r0, #1
 8000d4c:	2200      	movs	r2, #0
 8000d4e:	0021      	movs	r1, r4
 8000d50:	f000 f830 	bl	8000db4 <HAL_NVIC_SetPriority>
        uwTickPrio = TickPriority;
 8000d54:	4b03      	ldr	r3, [pc, #12]	@ (8000d64 <HAL_InitTick+0x48>)
 8000d56:	2000      	movs	r0, #0
 8000d58:	601c      	str	r4, [r3, #0]
  return status;
 8000d5a:	e7e6      	b.n	8000d2a <HAL_InitTick+0xe>
 8000d5c:	2000066c 	.word	0x2000066c
 8000d60:	20000668 	.word	0x20000668
 8000d64:	20000670 	.word	0x20000670

08000d68 <HAL_Init>:
  __HAL_FLASH_PREFETCH_BUFFER_ENABLE();
 8000d68:	2380      	movs	r3, #128	@ 0x80
 8000d6a:	4a08      	ldr	r2, [pc, #32]	@ (8000d8c <HAL_Init+0x24>)
 8000d6c:	005b      	lsls	r3, r3, #1
 8000d6e:	6811      	ldr	r1, [r2, #0]
{
 8000d70:	b510      	push	{r4, lr}
  __HAL_FLASH_PREFETCH_BUFFER_ENABLE();
 8000d72:	430b      	orrs	r3, r1
  if (HAL_InitTick(TICK_INT_PRIORITY) != HAL_OK)
 8000d74:	2003      	movs	r0, #3
  __HAL_FLASH_PREFETCH_BUFFER_ENABLE();
 8000d76:	6013      	str	r3, [r2, #0]
  if (HAL_InitTick(TICK_INT_PRIORITY) != HAL_OK)
 8000d78:	f7ff ffd0 	bl	8000d1c <HAL_InitTick>
 8000d7c:	1e04      	subs	r4, r0, #0
 8000d7e:	d002      	beq.n	8000d86 <HAL_Init+0x1e>
    status = HAL_ERROR;
 8000d80:	2401      	movs	r4, #1
}
 8000d82:	0020      	movs	r0, r4
 8000d84:	bd10      	pop	{r4, pc}
  HAL_MspInit();
 8000d86:	f7ff fdd5 	bl	8000934 <HAL_MspInit>
 8000d8a:	e7fa      	b.n	8000d82 <HAL_Init+0x1a>
 8000d8c:	40022000 	.word	0x40022000

08000d90 <HAL_IncTick>:
  *      implementations in user file.
  * @retval None
  */
__weak void HAL_IncTick(void)
{
  uwTick += (uint32_t)uwTickFreq;
 8000d90:	4a03      	ldr	r2, [pc, #12]	@ (8000da0 <HAL_IncTick+0x10>)
 8000d92:	4b04      	ldr	r3, [pc, #16]	@ (8000da4 <HAL_IncTick+0x14>)
 8000d94:	6811      	ldr	r1, [r2, #0]
 8000d96:	781b      	ldrb	r3, [r3, #0]
 8000d98:	185b      	adds	r3, r3, r1
 8000d9a:	6013      	str	r3, [r2, #0]
}
 8000d9c:	4770      	bx	lr
 8000d9e:	46c0      	nop			@ (mov r8, r8)
 8000da0:	20000850 	.word	0x20000850
 8000da4:	2000066c 	.word	0x2000066c

08000da8 <HAL_GetTick>:
  *       implementations in user file.
  * @retval tick value
  */
__weak uint32_t HAL_GetTick(void)
{
  return uwTick;
 8000da8:	4b01      	ldr	r3, [pc, #4]	@ (8000db0 <HAL_GetTick+0x8>)
 8000daa:	6818      	ldr	r0, [r3, #0]
}
 8000dac:	4770      	bx	lr
 8000dae:	46c0      	nop			@ (mov r8, r8)
 8000db0:	20000850 	.word	0x20000850

08000db4 <HAL_NVIC_SetPriority>:
 */
__STATIC_INLINE void __NVIC_SetPriority(IRQn_Type IRQn, uint32_t priority)
{
  if ((int32_t)(IRQn) >= 0)
  {
    NVIC->IP[_IP_IDX(IRQn)]  = ((uint32_t)(NVIC->IP[_IP_IDX(IRQn)]  & ~(0xFFUL << _BIT_SHIFT(IRQn))) |
 8000db4:	22ff      	movs	r2, #255	@ 0xff
 8000db6:	2303      	movs	r3, #3
  *         with stm32g0xx devices, this parameter is a dummy value and it is ignored, because
  *         no subpriority supported in Cortex M0+ based products.
  * @retval None
  */
void HAL_NVIC_SetPriority(IRQn_Type IRQn, uint32_t PreemptPriority, uint32_t SubPriority)
{
 8000db8:	b510      	push	{r4, lr}
 8000dba:	0014      	movs	r4, r2
 8000dbc:	4003      	ands	r3, r0
 8000dbe:	00db      	lsls	r3, r3, #3
 8000dc0:	409c      	lsls	r4, r3
       (((priority << (8U - __NVIC_PRIO_BITS)) & (uint32_t)0xFFUL) << _BIT_SHIFT(IRQn)));
 8000dc2:	0189      	lsls	r1, r1, #6
 8000dc4:	400a      	ands	r2, r1
    NVIC->IP[_IP_IDX(IRQn)]  = ((uint32_t)(NVIC->IP[_IP_IDX(IRQn)]  & ~(0xFFUL << _BIT_SHIFT(IRQn))) |
 8000dc6:	43e4      	mvns	r4, r4
       (((priority << (8U - __NVIC_PRIO_BITS)) & (uint32_t)0xFFUL) << _BIT_SHIFT(IRQn)));
 8000dc8:	409a      	lsls	r2, r3
  if ((int32_t)(IRQn) >= 0)
 8000dca:	2800      	cmp	r0, #0
 8000dcc:	db0b      	blt.n	8000de6 <HAL_NVIC_SetPriority+0x32>
    NVIC->IP[_IP_IDX(IRQn)]  = ((uint32_t)(NVIC->IP[_IP_IDX(IRQn)]  & ~(0xFFUL << _BIT_SHIFT(IRQn))) |
 8000dce:	4b0c      	ldr	r3, [pc, #48]	@ (8000e00 <HAL_NVIC_SetPriority+0x4c>)
 8000dd0:	21c0      	movs	r1, #192	@ 0xc0
 8000dd2:	469c      	mov	ip, r3
 8000dd4:	0880      	lsrs	r0, r0, #2
 8000dd6:	0080      	lsls	r0, r0, #2
 8000dd8:	4460      	add	r0, ip
 8000dda:	0089      	lsls	r1, r1, #2
 8000ddc:	5843      	ldr	r3, [r0, r1]
 8000dde:	4023      	ands	r3, r4
 8000de0:	4313      	orrs	r3, r2
 8000de2:	5043      	str	r3, [r0, r1]
  UNUSED(SubPriority);

  /* Check the parameters */
  assert_param(IS_NVIC_PREEMPTION_PRIORITY(PreemptPriority));
  NVIC_SetPriority(IRQn, PreemptPriority);
}
 8000de4:	bd10      	pop	{r4, pc}
  }
  else
  {
    SCB->SHP[_SHP_IDX(IRQn)] = ((uint32_t)(SCB->SHP[_SHP_IDX(IRQn)] & ~(0xFFUL << _BIT_SHIFT(IRQn))) |
 8000de6:	230f      	movs	r3, #15
 8000de8:	4906      	ldr	r1, [pc, #24]	@ (8000e04 <HAL_NVIC_SetPriority+0x50>)
 8000dea:	4003      	ands	r3, r0
 8000dec:	468c      	mov	ip, r1
 8000dee:	3b08      	subs	r3, #8
 8000df0:	089b      	lsrs	r3, r3, #2
 8000df2:	009b      	lsls	r3, r3, #2
 8000df4:	4463      	add	r3, ip
 8000df6:	69d9      	ldr	r1, [r3, #28]
 8000df8:	400c      	ands	r4, r1
 8000dfa:	4314      	orrs	r4, r2
 8000dfc:	61dc      	str	r4, [r3, #28]
 8000dfe:	e7f1      	b.n	8000de4 <HAL_NVIC_SetPriority+0x30>
 8000e00:	e000e100 	.word	0xe000e100
 8000e04:	e000ed00 	.word	0xe000ed00

08000e08 <HAL_NVIC_EnableIRQ>:
  if ((int32_t)(IRQn) >= 0)
 8000e08:	2800      	cmp	r0, #0
 8000e0a:	db05      	blt.n	8000e18 <HAL_NVIC_EnableIRQ+0x10>
    NVIC->ISER[0U] = (uint32_t)(1UL << (((uint32_t)IRQn) & 0x1FUL));
 8000e0c:	221f      	movs	r2, #31
 8000e0e:	2301      	movs	r3, #1
 8000e10:	4002      	ands	r2, r0
 8000e12:	4093      	lsls	r3, r2
 8000e14:	4a01      	ldr	r2, [pc, #4]	@ (8000e1c <HAL_NVIC_EnableIRQ+0x14>)
 8000e16:	6013      	str	r3, [r2, #0]
  /* Check the parameters */
  assert_param(IS_NVIC_DEVICE_IRQ(IRQn));

  /* Enable interrupt */
  NVIC_EnableIRQ(IRQn);
}
 8000e18:	4770      	bx	lr
 8000e1a:	46c0      	nop			@ (mov r8, r8)
 8000e1c:	e000e100 	.word	0xe000e100

08000e20 <HAL_SYSTICK_Config>:
           function <b>SysTick_Config</b> is not included. In this case, the file <b><i>device</i>.h</b>
           must contain a vendor-specific implementation of this function.
 */
__STATIC_INLINE uint32_t SysTick_Config(uint32_t ticks)
{
  if ((ticks - 1UL) > SysTick_LOAD_RELOAD_Msk)
 8000e20:	2280      	movs	r2, #128	@ 0x80
 8000e22:	1e43      	subs	r3, r0, #1
 8000e24:	0452      	lsls	r2, r2, #17
  {
    return (1UL);                                                   /* Reload value impossible */
 8000e26:	2001      	movs	r0, #1
  if ((ticks - 1UL) > SysTick_LOAD_RELOAD_Msk)
 8000e28:	4293      	cmp	r3, r2
 8000e2a:	d20e      	bcs.n	8000e4a <HAL_SYSTICK_Config+0x2a>
    SCB->SHP[_SHP_IDX(IRQn)] = ((uint32_t)(SCB->SHP[_SHP_IDX(IRQn)] & ~(0xFFUL << _BIT_SHIFT(IRQn))) |
 8000e2c:	21c0      	movs	r1, #192	@ 0xc0
  }

  SysTick->LOAD  = (uint32_t)(ticks - 1UL);                         /* set reload register */
 8000e2e:	4a07      	ldr	r2, [pc, #28]	@ (8000e4c <HAL_SYSTICK_Config+0x2c>)
    SCB->SHP[_SHP_IDX(IRQn)] = ((uint32_t)(SCB->SHP[_SHP_IDX(IRQn)] & ~(0xFFUL << _BIT_SHIFT(IRQn))) |
 8000e30:	4807      	ldr	r0, [pc, #28]	@ (8000e50 <HAL_SYSTICK_Config+0x30>)
  SysTick->LOAD  = (uint32_t)(ticks - 1UL);                         /* set reload register */
 8000e32:	6053      	str	r3, [r2, #4]
    SCB->SHP[_SHP_IDX(IRQn)] = ((uint32_t)(SCB->SHP[_SHP_IDX(IRQn)] & ~(0xFFUL << _BIT_SHIFT(IRQn))) |
 8000e34:	6a03      	ldr	r3, [r0, #32]
 8000e36:	0609      	lsls	r1, r1, #24
 8000e38:	021b      	lsls	r3, r3, #8
 8000e3a:	0a1b      	lsrs	r3, r3, #8
 8000e3c:	430b      	orrs	r3, r1
 8000e3e:	6203      	str	r3, [r0, #32]
  NVIC_SetPriority (SysTick_IRQn, (1UL << __NVIC_PRIO_BITS) - 1UL); /* set Priority for Systick Interrupt */
  SysTick->VAL   = 0UL;                                             /* Load the SysTick Counter Value */
 8000e40:	2300      	movs	r3, #0
  SysTick->CTRL  = SysTick_CTRL_CLKSOURCE_Msk |
                   SysTick_CTRL_TICKINT_Msk   |
                   SysTick_CTRL_ENABLE_Msk;                         /* Enable SysTick IRQ and SysTick Timer */
  return (0UL);                                                     /* Function successful */
 8000e42:	2000      	movs	r0, #0
  SysTick->VAL   = 0UL;                                             /* Load the SysTick Counter Value */
 8000e44:	6093      	str	r3, [r2, #8]
  SysTick->CTRL  = SysTick_CTRL_CLKSOURCE_Msk |
 8000e46:	3307      	adds	r3, #7
 8000e48:	6013      	str	r3, [r2, #0]
  *                  - 1  Function failed.
  */
uint32_t HAL_SYSTICK_Config(uint32_t TicksNumb)
{
  return SysTick_Config(TicksNumb);
}
 8000e4a:	4770      	bx	lr
 8000e4c:	e000e010 	.word	0xe000e010
 8000e50:	e000ed00 	.word	0xe000ed00

08000e54 <HAL_GPIO_Init>:
  * @param  GPIO_Init pointer to a GPIO_InitTypeDef structure that contains
  *         the configuration information for the specified GPIO peripheral.
  * @retval None
  */
void HAL_GPIO_Init(GPIO_TypeDef  *GPIOx, GPIO_InitTypeDef *GPIO_Init)
{
 8000e54:	b5f0      	push	{r4, r5, r6, r7, lr}
 8000e56:	46de      	mov	lr, fp
 8000e58:	4657      	mov	r7, sl
 8000e5a:	464e      	mov	r6, r9
 8000e5c:	4645      	mov	r5, r8
 8000e5e:	b5e0      	push	{r5, r6, r7, lr}
  assert_param(IS_GPIO_ALL_INSTANCE(GPIOx));
  assert_param(IS_GPIO_PIN(GPIO_Init->Pin));
  assert_param(IS_GPIO_MODE(GPIO_Init->Mode));

  /* Configure the port pins */
  while (((GPIO_Init->Pin) >> position) != 0x00u)
 8000e60:	680c      	ldr	r4, [r1, #0]
{
 8000e62:	468b      	mov	fp, r1
  uint32_t position = 0x00u;
 8000e64:	2300      	movs	r3, #0
{
 8000e66:	b083      	sub	sp, #12
  while (((GPIO_Init->Pin) >> position) != 0x00u)
 8000e68:	2c00      	cmp	r4, #0
 8000e6a:	d068      	beq.n	8000f3e <HAL_GPIO_Init+0xea>
  {
    /* Get current io position */
    iocurrent = (GPIO_Init->Pin) & (1uL << position);
 8000e6c:	2201      	movs	r2, #1
 8000e6e:	409a      	lsls	r2, r3
 8000e70:	4694      	mov	ip, r2
 8000e72:	4022      	ands	r2, r4
 8000e74:	4692      	mov	sl, r2

    if (iocurrent != 0x00u)
 8000e76:	4662      	mov	r2, ip
 8000e78:	4214      	tst	r4, r2
 8000e7a:	d05c      	beq.n	8000f36 <HAL_GPIO_Init+0xe2>
        /* Check the Speed parameter */
        assert_param(IS_GPIO_SPEED(GPIO_Init->Speed));

        /* Configure the IO Speed */
        temp = GPIOx->OSPEEDR;
        temp &= ~(GPIO_OSPEEDR_OSPEED0 << (position * 2u));
 8000e7c:	2103      	movs	r1, #3
      if (((GPIO_Init->Mode & GPIO_MODE) == MODE_OUTPUT) || ((GPIO_Init->Mode & GPIO_MODE) == MODE_AF))
 8000e7e:	465a      	mov	r2, fp
 8000e80:	005f      	lsls	r7, r3, #1
        temp &= ~(GPIO_OSPEEDR_OSPEED0 << (position * 2u));
 8000e82:	40b9      	lsls	r1, r7
      if (((GPIO_Init->Mode & GPIO_MODE) == MODE_OUTPUT) || ((GPIO_Init->Mode & GPIO_MODE) == MODE_AF))
 8000e84:	6855      	ldr	r5, [r2, #4]
 8000e86:	2203      	movs	r2, #3
        temp &= ~(GPIO_OSPEEDR_OSPEED0 << (position * 2u));
 8000e88:	43c9      	mvns	r1, r1
      if (((GPIO_Init->Mode & GPIO_MODE) == MODE_OUTPUT) || ((GPIO_Init->Mode & GPIO_MODE) == MODE_AF))
 8000e8a:	402a      	ands	r2, r5
 8000e8c:	1e56      	subs	r6, r2, #1
        temp &= ~(GPIO_OSPEEDR_OSPEED0 << (position * 2u));
 8000e8e:	9100      	str	r1, [sp, #0]
      if (((GPIO_Init->Mode & GPIO_MODE) == MODE_OUTPUT) || ((GPIO_Init->Mode & GPIO_MODE) == MODE_AF))
 8000e90:	2e01      	cmp	r6, #1
 8000e92:	d95b      	bls.n	8000f4c <HAL_GPIO_Init+0xf8>
        temp &= ~(GPIO_OTYPER_OT0 << position) ;
        temp |= (((GPIO_Init->Mode & OUTPUT_TYPE) >> OUTPUT_TYPE_Pos) << position);
        GPIOx->OTYPER = temp;
      }

      if ((GPIO_Init->Mode & GPIO_MODE) != MODE_ANALOG)
 8000e94:	2a03      	cmp	r2, #3
 8000e96:	d000      	beq.n	8000e9a <HAL_GPIO_Init+0x46>
 8000e98:	e0ad      	b.n	8000ff6 <HAL_GPIO_Init+0x1a2>
      }

      /* Configure IO Direction mode (Input, Output, Alternate or Analog) */
      temp = GPIOx->MODER;
      temp &= ~(GPIO_MODER_MODE0 << (position * 2u));
      temp |= ((GPIO_Init->Mode & GPIO_MODE) << (position * 2u));
 8000e9a:	40ba      	lsls	r2, r7
      temp = GPIOx->MODER;
 8000e9c:	6806      	ldr	r6, [r0, #0]
      temp &= ~(GPIO_MODER_MODE0 << (position * 2u));
 8000e9e:	9900      	ldr	r1, [sp, #0]
 8000ea0:	4031      	ands	r1, r6
      temp |= ((GPIO_Init->Mode & GPIO_MODE) << (position * 2u));
 8000ea2:	430a      	orrs	r2, r1
      GPIOx->MODER = temp;
 8000ea4:	6002      	str	r2, [r0, #0]

      /*--------------------- EXTI Mode Configuration ------------------------*/
      /* Configure the External Interrupt or event for the current IO */
      if ((GPIO_Init->Mode & EXTI_MODE) != 0x00u)
 8000ea6:	22c0      	movs	r2, #192	@ 0xc0
 8000ea8:	0292      	lsls	r2, r2, #10
 8000eaa:	4215      	tst	r5, r2
 8000eac:	d043      	beq.n	8000f36 <HAL_GPIO_Init+0xe2>
      {
        temp = EXTI->EXTICR[position >> 2u];
        temp &= ~(0x0FuL << (8u * (position & 0x03u)));
 8000eae:	2703      	movs	r7, #3
 8000eb0:	260f      	movs	r6, #15
 8000eb2:	495d      	ldr	r1, [pc, #372]	@ (8001028 <HAL_GPIO_Init+0x1d4>)
 8000eb4:	401f      	ands	r7, r3
 8000eb6:	468c      	mov	ip, r1
 8000eb8:	00ff      	lsls	r7, r7, #3
 8000eba:	40be      	lsls	r6, r7
        temp = EXTI->EXTICR[position >> 2u];
 8000ebc:	089a      	lsrs	r2, r3, #2
 8000ebe:	0092      	lsls	r2, r2, #2
 8000ec0:	4462      	add	r2, ip
 8000ec2:	6e11      	ldr	r1, [r2, #96]	@ 0x60
        temp &= ~(0x0FuL << (8u * (position & 0x03u)));
 8000ec4:	43b1      	bics	r1, r6
        temp |= (GPIO_GET_INDEX(GPIOx) << (8u * (position & 0x03u)));
 8000ec6:	26a0      	movs	r6, #160	@ 0xa0
 8000ec8:	05f6      	lsls	r6, r6, #23
 8000eca:	42b0      	cmp	r0, r6
 8000ecc:	d00e      	beq.n	8000eec <HAL_GPIO_Init+0x98>
 8000ece:	4e57      	ldr	r6, [pc, #348]	@ (800102c <HAL_GPIO_Init+0x1d8>)
 8000ed0:	42b0      	cmp	r0, r6
 8000ed2:	d100      	bne.n	8000ed6 <HAL_GPIO_Init+0x82>
 8000ed4:	e0a0      	b.n	8001018 <HAL_GPIO_Init+0x1c4>
 8000ed6:	4e56      	ldr	r6, [pc, #344]	@ (8001030 <HAL_GPIO_Init+0x1dc>)
 8000ed8:	42b0      	cmp	r0, r6
 8000eda:	d100      	bne.n	8000ede <HAL_GPIO_Init+0x8a>
 8000edc:	e0a0      	b.n	8001020 <HAL_GPIO_Init+0x1cc>
 8000ede:	4e55      	ldr	r6, [pc, #340]	@ (8001034 <HAL_GPIO_Init+0x1e0>)
 8000ee0:	42b0      	cmp	r0, r6
 8000ee2:	d100      	bne.n	8000ee6 <HAL_GPIO_Init+0x92>
 8000ee4:	e094      	b.n	8001010 <HAL_GPIO_Init+0x1bc>
 8000ee6:	2605      	movs	r6, #5
 8000ee8:	40be      	lsls	r6, r7
 8000eea:	4331      	orrs	r1, r6
        EXTI->EXTICR[position >> 2u] = temp;

        /* Clear Rising Falling edge configuration */
        temp = EXTI->RTSR1;
        temp &= ~(iocurrent);
        if ((GPIO_Init->Mode & TRIGGER_RISING) != 0x00u)
 8000eec:	2680      	movs	r6, #128	@ 0x80
        EXTI->EXTICR[position >> 2u] = temp;
 8000eee:	6611      	str	r1, [r2, #96]	@ 0x60
        temp &= ~(iocurrent);
 8000ef0:	4651      	mov	r1, sl
        temp = EXTI->RTSR1;
 8000ef2:	4a4d      	ldr	r2, [pc, #308]	@ (8001028 <HAL_GPIO_Init+0x1d4>)
        if ((GPIO_Init->Mode & TRIGGER_RISING) != 0x00u)
 8000ef4:	0376      	lsls	r6, r6, #13
        temp &= ~(iocurrent);
 8000ef6:	43c9      	mvns	r1, r1
        temp = EXTI->RTSR1;
 8000ef8:	6812      	ldr	r2, [r2, #0]
        if ((GPIO_Init->Mode & TRIGGER_RISING) != 0x00u)
 8000efa:	4235      	tst	r5, r6
 8000efc:	d000      	beq.n	8000f00 <HAL_GPIO_Init+0xac>
 8000efe:	e077      	b.n	8000ff0 <HAL_GPIO_Init+0x19c>
        temp &= ~(iocurrent);
 8000f00:	400a      	ands	r2, r1
        {
          temp |= iocurrent;
        }
        EXTI->RTSR1 = temp;
 8000f02:	4e49      	ldr	r6, [pc, #292]	@ (8001028 <HAL_GPIO_Init+0x1d4>)
 8000f04:	6032      	str	r2, [r6, #0]

        temp = EXTI->FTSR1;
 8000f06:	6872      	ldr	r2, [r6, #4]
        temp &= ~(iocurrent);
        if ((GPIO_Init->Mode & TRIGGER_FALLING) != 0x00u)
 8000f08:	2680      	movs	r6, #128	@ 0x80
 8000f0a:	03b6      	lsls	r6, r6, #14
 8000f0c:	4235      	tst	r5, r6
 8000f0e:	d16c      	bne.n	8000fea <HAL_GPIO_Init+0x196>
        temp &= ~(iocurrent);
 8000f10:	400a      	ands	r2, r1
        {
          temp |= iocurrent;
        }
        EXTI->FTSR1 = temp;
 8000f12:	4e45      	ldr	r6, [pc, #276]	@ (8001028 <HAL_GPIO_Init+0x1d4>)
 8000f14:	6072      	str	r2, [r6, #4]

        /* Clear EXTI line configuration */
        temp = EXTI->EMR1;
 8000f16:	2284      	movs	r2, #132	@ 0x84
 8000f18:	58b2      	ldr	r2, [r6, r2]
        temp &= ~(iocurrent);
        if ((GPIO_Init->Mode & EXTI_EVT) != 0x00u)
 8000f1a:	03af      	lsls	r7, r5, #14
 8000f1c:	d462      	bmi.n	8000fe4 <HAL_GPIO_Init+0x190>
        temp &= ~(iocurrent);
 8000f1e:	400a      	ands	r2, r1
        {
          temp |= iocurrent;
        }
        EXTI->EMR1 = temp;
 8000f20:	2784      	movs	r7, #132	@ 0x84
 8000f22:	4e41      	ldr	r6, [pc, #260]	@ (8001028 <HAL_GPIO_Init+0x1d4>)
 8000f24:	51f2      	str	r2, [r6, r7]

        temp = EXTI->IMR1;
 8000f26:	2280      	movs	r2, #128	@ 0x80
 8000f28:	58b2      	ldr	r2, [r6, r2]
        temp &= ~(iocurrent);
        if ((GPIO_Init->Mode & EXTI_IT) != 0x00u)
 8000f2a:	03ed      	lsls	r5, r5, #15
 8000f2c:	d456      	bmi.n	8000fdc <HAL_GPIO_Init+0x188>
        temp &= ~(iocurrent);
 8000f2e:	400a      	ands	r2, r1
        {
          temp |= iocurrent;
        }
        EXTI->IMR1 = temp;
 8000f30:	2180      	movs	r1, #128	@ 0x80
 8000f32:	4d3d      	ldr	r5, [pc, #244]	@ (8001028 <HAL_GPIO_Init+0x1d4>)
 8000f34:	506a      	str	r2, [r5, r1]
  while (((GPIO_Init->Pin) >> position) != 0x00u)
 8000f36:	0022      	movs	r2, r4
      }
    }

    position++;
 8000f38:	3301      	adds	r3, #1
  while (((GPIO_Init->Pin) >> position) != 0x00u)
 8000f3a:	40da      	lsrs	r2, r3
 8000f3c:	d196      	bne.n	8000e6c <HAL_GPIO_Init+0x18>
  }
}
 8000f3e:	b003      	add	sp, #12
 8000f40:	bcf0      	pop	{r4, r5, r6, r7}
 8000f42:	46bb      	mov	fp, r7
 8000f44:	46b2      	mov	sl, r6
 8000f46:	46a9      	mov	r9, r5
 8000f48:	46a0      	mov	r8, r4
 8000f4a:	bdf0      	pop	{r4, r5, r6, r7, pc}
        temp = GPIOx->OSPEEDR;
 8000f4c:	6881      	ldr	r1, [r0, #8]
        temp &= ~(GPIO_OSPEEDR_OSPEED0 << (position * 2u));
 8000f4e:	000e      	movs	r6, r1
 8000f50:	9900      	ldr	r1, [sp, #0]
 8000f52:	400e      	ands	r6, r1
        temp |= (GPIO_Init->Speed << (position * 2u));
 8000f54:	4659      	mov	r1, fp
 8000f56:	68c9      	ldr	r1, [r1, #12]
        temp &= ~(GPIO_OSPEEDR_OSPEED0 << (position * 2u));
 8000f58:	46b1      	mov	r9, r6
        temp |= (GPIO_Init->Speed << (position * 2u));
 8000f5a:	000e      	movs	r6, r1
 8000f5c:	40be      	lsls	r6, r7
 8000f5e:	46b0      	mov	r8, r6
 8000f60:	464e      	mov	r6, r9
 8000f62:	4641      	mov	r1, r8
 8000f64:	430e      	orrs	r6, r1
        GPIOx->OSPEEDR = temp;
 8000f66:	6086      	str	r6, [r0, #8]
        temp = GPIOx->OTYPER;
 8000f68:	6841      	ldr	r1, [r0, #4]
        temp &= ~(GPIO_OTYPER_OT0 << position) ;
 8000f6a:	000e      	movs	r6, r1
 8000f6c:	4661      	mov	r1, ip
 8000f6e:	438e      	bics	r6, r1
        temp |= (((GPIO_Init->Mode & OUTPUT_TYPE) >> OUTPUT_TYPE_Pos) << position);
 8000f70:	0929      	lsrs	r1, r5, #4
        temp &= ~(GPIO_OTYPER_OT0 << position) ;
 8000f72:	46b0      	mov	r8, r6
        temp |= (((GPIO_Init->Mode & OUTPUT_TYPE) >> OUTPUT_TYPE_Pos) << position);
 8000f74:	000e      	movs	r6, r1
 8000f76:	2101      	movs	r1, #1
 8000f78:	400e      	ands	r6, r1
 8000f7a:	409e      	lsls	r6, r3
 8000f7c:	46b4      	mov	ip, r6
 8000f7e:	4646      	mov	r6, r8
 8000f80:	4661      	mov	r1, ip
 8000f82:	430e      	orrs	r6, r1
        GPIOx->OTYPER = temp;
 8000f84:	6046      	str	r6, [r0, #4]
        temp = GPIOx->PUPDR;
 8000f86:	68c1      	ldr	r1, [r0, #12]
        temp &= ~(GPIO_PUPDR_PUPD0 << (position * 2u));
 8000f88:	000e      	movs	r6, r1
 8000f8a:	9900      	ldr	r1, [sp, #0]
 8000f8c:	400e      	ands	r6, r1
        temp |= ((GPIO_Init->Pull) << (position * 2u));
 8000f8e:	4659      	mov	r1, fp
 8000f90:	6889      	ldr	r1, [r1, #8]
        temp &= ~(GPIO_PUPDR_PUPD0 << (position * 2u));
 8000f92:	46b0      	mov	r8, r6
        temp |= ((GPIO_Init->Pull) << (position * 2u));
 8000f94:	000e      	movs	r6, r1
 8000f96:	40be      	lsls	r6, r7
 8000f98:	46b4      	mov	ip, r6
 8000f9a:	4646      	mov	r6, r8
 8000f9c:	4661      	mov	r1, ip
 8000f9e:	430e      	orrs	r6, r1
        GPIOx->PUPDR = temp;
 8000fa0:	60c6      	str	r6, [r0, #12]
      if ((GPIO_Init->Mode & GPIO_MODE) == MODE_AF)
 8000fa2:	2a02      	cmp	r2, #2
 8000fa4:	d000      	beq.n	8000fa8 <HAL_GPIO_Init+0x154>
 8000fa6:	e778      	b.n	8000e9a <HAL_GPIO_Init+0x46>
        temp = GPIOx->AFR[position >> 3u];
 8000fa8:	08d9      	lsrs	r1, r3, #3
 8000faa:	0089      	lsls	r1, r1, #2
 8000fac:	468c      	mov	ip, r1
 8000fae:	4484      	add	ip, r0
 8000fb0:	4661      	mov	r1, ip
 8000fb2:	6a0e      	ldr	r6, [r1, #32]
        temp &= ~(0xFu << ((position & 0x07u) * 4u));
 8000fb4:	2107      	movs	r1, #7
 8000fb6:	4019      	ands	r1, r3
 8000fb8:	0089      	lsls	r1, r1, #2
 8000fba:	4688      	mov	r8, r1
        temp = GPIOx->AFR[position >> 3u];
 8000fbc:	9601      	str	r6, [sp, #4]
        temp &= ~(0xFu << ((position & 0x07u) * 4u));
 8000fbe:	210f      	movs	r1, #15
 8000fc0:	4646      	mov	r6, r8
 8000fc2:	40b1      	lsls	r1, r6
 8000fc4:	9e01      	ldr	r6, [sp, #4]
 8000fc6:	438e      	bics	r6, r1
        temp |= ((GPIO_Init->Alternate) << ((position & 0x07u) * 4u));
 8000fc8:	4659      	mov	r1, fp
        temp &= ~(0xFu << ((position & 0x07u) * 4u));
 8000fca:	9601      	str	r6, [sp, #4]
        temp |= ((GPIO_Init->Alternate) << ((position & 0x07u) * 4u));
 8000fcc:	4646      	mov	r6, r8
 8000fce:	6909      	ldr	r1, [r1, #16]
 8000fd0:	40b1      	lsls	r1, r6
 8000fd2:	9e01      	ldr	r6, [sp, #4]
 8000fd4:	430e      	orrs	r6, r1
        GPIOx->AFR[position >> 3u] = temp;
 8000fd6:	4661      	mov	r1, ip
 8000fd8:	620e      	str	r6, [r1, #32]
 8000fda:	e75e      	b.n	8000e9a <HAL_GPIO_Init+0x46>
          temp |= iocurrent;
 8000fdc:	4651      	mov	r1, sl
 8000fde:	4311      	orrs	r1, r2
 8000fe0:	000a      	movs	r2, r1
 8000fe2:	e7a5      	b.n	8000f30 <HAL_GPIO_Init+0xdc>
          temp |= iocurrent;
 8000fe4:	4656      	mov	r6, sl
 8000fe6:	4332      	orrs	r2, r6
 8000fe8:	e79a      	b.n	8000f20 <HAL_GPIO_Init+0xcc>
          temp |= iocurrent;
 8000fea:	4656      	mov	r6, sl
 8000fec:	4332      	orrs	r2, r6
 8000fee:	e790      	b.n	8000f12 <HAL_GPIO_Init+0xbe>
          temp |= iocurrent;
 8000ff0:	4656      	mov	r6, sl
 8000ff2:	4332      	orrs	r2, r6
 8000ff4:	e785      	b.n	8000f02 <HAL_GPIO_Init+0xae>
 8000ff6:	000e      	movs	r6, r1
        temp = GPIOx->PUPDR;
 8000ff8:	68c1      	ldr	r1, [r0, #12]
        temp &= ~(GPIO_PUPDR_PUPD0 << (position * 2u));
 8000ffa:	4031      	ands	r1, r6
 8000ffc:	4688      	mov	r8, r1
        temp |= ((GPIO_Init->Pull) << (position * 2u));
 8000ffe:	4659      	mov	r1, fp
 8001000:	6889      	ldr	r1, [r1, #8]
 8001002:	40b9      	lsls	r1, r7
 8001004:	468c      	mov	ip, r1
 8001006:	4641      	mov	r1, r8
 8001008:	4666      	mov	r6, ip
 800100a:	4331      	orrs	r1, r6
        GPIOx->PUPDR = temp;
 800100c:	60c1      	str	r1, [r0, #12]
      if ((GPIO_Init->Mode & GPIO_MODE) == MODE_AF)
 800100e:	e744      	b.n	8000e9a <HAL_GPIO_Init+0x46>
        temp |= (GPIO_GET_INDEX(GPIOx) << (8u * (position & 0x03u)));
 8001010:	2603      	movs	r6, #3
 8001012:	40be      	lsls	r6, r7
 8001014:	4331      	orrs	r1, r6
 8001016:	e769      	b.n	8000eec <HAL_GPIO_Init+0x98>
 8001018:	2601      	movs	r6, #1
 800101a:	40be      	lsls	r6, r7
 800101c:	4331      	orrs	r1, r6
 800101e:	e765      	b.n	8000eec <HAL_GPIO_Init+0x98>
 8001020:	2602      	movs	r6, #2
 8001022:	40be      	lsls	r6, r7
 8001024:	4331      	orrs	r1, r6
 8001026:	e761      	b.n	8000eec <HAL_GPIO_Init+0x98>
 8001028:	40021800 	.word	0x40021800
 800102c:	50000400 	.word	0x50000400
 8001030:	50000800 	.word	0x50000800
 8001034:	50000c00 	.word	0x50000c00

08001038 <HAL_GPIO_ReadPin>:
  GPIO_PinState bitstatus;

  /* Check the parameters */
  assert_param(IS_GPIO_PIN(GPIO_Pin));

  if ((GPIOx->IDR & GPIO_Pin) != 0x00u)
 8001038:	6900      	ldr	r0, [r0, #16]
 800103a:	4008      	ands	r0, r1
 800103c:	1e43      	subs	r3, r0, #1
 800103e:	4198      	sbcs	r0, r3
  }
  else
  {
    bitstatus = GPIO_PIN_RESET;
  }
  return bitstatus;
 8001040:	b2c0      	uxtb	r0, r0
}
 8001042:	4770      	bx	lr

08001044 <HAL_GPIO_WritePin>:
{
  /* Check the parameters */
  assert_param(IS_GPIO_PIN(GPIO_Pin));
  assert_param(IS_GPIO_PIN_ACTION(PinState));

  if (PinState != GPIO_PIN_RESET)
 8001044:	2a00      	cmp	r2, #0
 8001046:	d001      	beq.n	800104c <HAL_GPIO_WritePin+0x8>
  {
    GPIOx->BSRR = (uint32_t)GPIO_Pin;
 8001048:	6181      	str	r1, [r0, #24]
  }
  else
  {
    GPIOx->BRR = (uint32_t)GPIO_Pin;
  }
}
 800104a:	4770      	bx	lr
    GPIOx->BRR = (uint32_t)GPIO_Pin;
 800104c:	6281      	str	r1, [r0, #40]	@ 0x28
}
 800104e:	e7fc      	b.n	800104a <HAL_GPIO_WritePin+0x6>

08001050 <HAL_PWREx_ControlVoltageScaling>:
  *        cleared before returning the status. If the flag is not cleared within
  *        6 microseconds, HAL_TIMEOUT status is reported.
  * @retval HAL Status
  */
HAL_StatusTypeDef HAL_PWREx_ControlVoltageScaling(uint32_t VoltageScaling)
{
 8001050:	b570      	push	{r4, r5, r6, lr}
  uint32_t wait_loop_index;

  assert_param(IS_PWR_VOLTAGE_SCALING_RANGE(VoltageScaling));

  /* Modify voltage scaling range */
  MODIFY_REG(PWR->CR1, PWR_CR1_VOS, VoltageScaling);
 8001052:	4c13      	ldr	r4, [pc, #76]	@ (80010a0 <HAL_PWREx_ControlVoltageScaling+0x50>)
 8001054:	4a13      	ldr	r2, [pc, #76]	@ (80010a4 <HAL_PWREx_ControlVoltageScaling+0x54>)
 8001056:	6823      	ldr	r3, [r4, #0]
        return HAL_TIMEOUT;
      }
    }
  }

  return HAL_OK;
 8001058:	2500      	movs	r5, #0
  MODIFY_REG(PWR->CR1, PWR_CR1_VOS, VoltageScaling);
 800105a:	4013      	ands	r3, r2
 800105c:	4303      	orrs	r3, r0
 800105e:	6023      	str	r3, [r4, #0]
  if (VoltageScaling == PWR_REGULATOR_VOLTAGE_SCALE1)
 8001060:	2380      	movs	r3, #128	@ 0x80
 8001062:	009b      	lsls	r3, r3, #2
 8001064:	4298      	cmp	r0, r3
 8001066:	d001      	beq.n	800106c <HAL_PWREx_ControlVoltageScaling+0x1c>
}
 8001068:	0028      	movs	r0, r5
 800106a:	bd70      	pop	{r4, r5, r6, pc}
    wait_loop_index = ((PWR_VOSF_SETTING_DELAY_6_US * SystemCoreClock) / 1000000U) + 1U;
 800106c:	4b0e      	ldr	r3, [pc, #56]	@ (80010a8 <HAL_PWREx_ControlVoltageScaling+0x58>)
 800106e:	490f      	ldr	r1, [pc, #60]	@ (80010ac <HAL_PWREx_ControlVoltageScaling+0x5c>)
 8001070:	681b      	ldr	r3, [r3, #0]
 8001072:	0058      	lsls	r0, r3, #1
 8001074:	18c0      	adds	r0, r0, r3
 8001076:	0040      	lsls	r0, r0, #1
 8001078:	f7ff f842 	bl	8000100 <__udivsi3>
    while (HAL_IS_BIT_SET(PWR->SR2, PWR_SR2_VOSF))
 800107c:	2280      	movs	r2, #128	@ 0x80
 800107e:	6963      	ldr	r3, [r4, #20]
 8001080:	00d2      	lsls	r2, r2, #3
    wait_loop_index = ((PWR_VOSF_SETTING_DELAY_6_US * SystemCoreClock) / 1000000U) + 1U;
 8001082:	3001      	adds	r0, #1
    while (HAL_IS_BIT_SET(PWR->SR2, PWR_SR2_VOSF))
 8001084:	4213      	tst	r3, r2
 8001086:	d102      	bne.n	800108e <HAL_PWREx_ControlVoltageScaling+0x3e>
 8001088:	e7ee      	b.n	8001068 <HAL_PWREx_ControlVoltageScaling+0x18>
      if (wait_loop_index != 0U)
 800108a:	2800      	cmp	r0, #0
 800108c:	d005      	beq.n	800109a <HAL_PWREx_ControlVoltageScaling+0x4a>
    while (HAL_IS_BIT_SET(PWR->SR2, PWR_SR2_VOSF))
 800108e:	6963      	ldr	r3, [r4, #20]
        wait_loop_index--;
 8001090:	3801      	subs	r0, #1
    while (HAL_IS_BIT_SET(PWR->SR2, PWR_SR2_VOSF))
 8001092:	4213      	tst	r3, r2
 8001094:	d1f9      	bne.n	800108a <HAL_PWREx_ControlVoltageScaling+0x3a>
  return HAL_OK;
 8001096:	2500      	movs	r5, #0
 8001098:	e7e6      	b.n	8001068 <HAL_PWREx_ControlVoltageScaling+0x18>
        return HAL_TIMEOUT;
 800109a:	2503      	movs	r5, #3
 800109c:	e7e4      	b.n	8001068 <HAL_PWREx_ControlVoltageScaling+0x18>
 800109e:	46c0      	nop			@ (mov r8, r8)
 80010a0:	40007000 	.word	0x40007000
 80010a4:	fffff9ff 	.word	0xfffff9ff
 80010a8:	20000668 	.word	0x20000668
 80010ac:	000f4240 	.word	0x000f4240

080010b0 <HAL_RCC_OscConfig>:
  *         supported by this function. User should request a transition to LSE Off
  *         first and then to LSE On or LSE Bypass.
  * @retval HAL status
  */
HAL_StatusTypeDef HAL_RCC_OscConfig(RCC_OscInitTypeDef  *RCC_OscInitStruct)
{
 80010b0:	b5f0      	push	{r4, r5, r6, r7, lr}
 80010b2:	46ce      	mov	lr, r9
 80010b4:	4647      	mov	r7, r8
 80010b6:	b580      	push	{r7, lr}
 80010b8:	0004      	movs	r4, r0
 80010ba:	b083      	sub	sp, #12
  uint32_t tickstart;
  uint32_t temp_sysclksrc;
  uint32_t temp_pllckcfg;

  /* Check Null pointer */
  if (RCC_OscInitStruct == NULL)
 80010bc:	2800      	cmp	r0, #0
 80010be:	d027      	beq.n	8001110 <HAL_RCC_OscConfig+0x60>

  /* Check the parameters */
  assert_param(IS_RCC_OSCILLATORTYPE(RCC_OscInitStruct->OscillatorType));

  /*------------------------------- HSE Configuration ------------------------*/
  if (((RCC_OscInitStruct->OscillatorType) & RCC_OSCILLATORTYPE_HSE) == RCC_OSCILLATORTYPE_HSE)
 80010c0:	6803      	ldr	r3, [r0, #0]
 80010c2:	07da      	lsls	r2, r3, #31
 80010c4:	d511      	bpl.n	80010ea <HAL_RCC_OscConfig+0x3a>
  {
    /* Check the parameters */
    assert_param(IS_RCC_HSE(RCC_OscInitStruct->HSEState));

    temp_sysclksrc = __HAL_RCC_GET_SYSCLK_SOURCE();
 80010c6:	2238      	movs	r2, #56	@ 0x38
 80010c8:	49c0      	ldr	r1, [pc, #768]	@ (80013cc <HAL_RCC_OscConfig+0x31c>)
 80010ca:	6888      	ldr	r0, [r1, #8]
    temp_pllckcfg = __HAL_RCC_GET_PLL_OSCSOURCE();
 80010cc:	68c9      	ldr	r1, [r1, #12]
    temp_sysclksrc = __HAL_RCC_GET_SYSCLK_SOURCE();
 80010ce:	4002      	ands	r2, r0

    /* When the HSE is used as system clock or clock source for PLL in these cases it is not allowed to be disabled */
    if (((temp_sysclksrc == RCC_SYSCLKSOURCE_STATUS_PLLCLK) && (temp_pllckcfg == RCC_PLLSOURCE_HSE))
 80010d0:	2a10      	cmp	r2, #16
 80010d2:	d100      	bne.n	80010d6 <HAL_RCC_OscConfig+0x26>
 80010d4:	e0cc      	b.n	8001270 <HAL_RCC_OscConfig+0x1c0>
        || (temp_sysclksrc == RCC_SYSCLKSOURCE_STATUS_HSE))
 80010d6:	2a08      	cmp	r2, #8
 80010d8:	d000      	beq.n	80010dc <HAL_RCC_OscConfig+0x2c>
 80010da:	e0cd      	b.n	8001278 <HAL_RCC_OscConfig+0x1c8>
    {
      if ((READ_BIT(RCC->CR, RCC_CR_HSERDY) != 0U) && (RCC_OscInitStruct->HSEState == RCC_HSE_OFF))
 80010dc:	4abb      	ldr	r2, [pc, #748]	@ (80013cc <HAL_RCC_OscConfig+0x31c>)
 80010de:	6812      	ldr	r2, [r2, #0]
 80010e0:	0392      	lsls	r2, r2, #14
 80010e2:	d502      	bpl.n	80010ea <HAL_RCC_OscConfig+0x3a>
 80010e4:	6862      	ldr	r2, [r4, #4]
 80010e6:	2a00      	cmp	r2, #0
 80010e8:	d012      	beq.n	8001110 <HAL_RCC_OscConfig+0x60>
        }
      }
    }
  }
  /*----------------------------- HSI Configuration --------------------------*/
  if (((RCC_OscInitStruct->OscillatorType) & RCC_OSCILLATORTYPE_HSI) == RCC_OSCILLATORTYPE_HSI)
 80010ea:	079a      	lsls	r2, r3, #30
 80010ec:	d532      	bpl.n	8001154 <HAL_RCC_OscConfig+0xa4>
    assert_param(IS_RCC_HSI(RCC_OscInitStruct->HSIState));
    assert_param(IS_RCC_HSI_CALIBRATION_VALUE(RCC_OscInitStruct->HSICalibrationValue));
    assert_param(IS_RCC_HSIDIV(RCC_OscInitStruct->HSIDiv));

    /* Check if HSI16 is used as system clock or as PLL source when PLL is selected as system clock */
    temp_sysclksrc = __HAL_RCC_GET_SYSCLK_SOURCE();
 80010ee:	2338      	movs	r3, #56	@ 0x38
 80010f0:	4ab6      	ldr	r2, [pc, #728]	@ (80013cc <HAL_RCC_OscConfig+0x31c>)
 80010f2:	6891      	ldr	r1, [r2, #8]
 80010f4:	400b      	ands	r3, r1
    temp_pllckcfg = __HAL_RCC_GET_PLL_OSCSOURCE();
 80010f6:	68d1      	ldr	r1, [r2, #12]
    if (((temp_sysclksrc == RCC_SYSCLKSOURCE_STATUS_PLLCLK) && (temp_pllckcfg == RCC_PLLSOURCE_HSI))
 80010f8:	2b10      	cmp	r3, #16
 80010fa:	d100      	bne.n	80010fe <HAL_RCC_OscConfig+0x4e>
 80010fc:	e10b      	b.n	8001316 <HAL_RCC_OscConfig+0x266>
        || (temp_sysclksrc == RCC_SYSCLKSOURCE_STATUS_HSI))
 80010fe:	2b00      	cmp	r3, #0
 8001100:	d000      	beq.n	8001104 <HAL_RCC_OscConfig+0x54>
 8001102:	e10d      	b.n	8001320 <HAL_RCC_OscConfig+0x270>
    {
      /* When HSI is used as system clock or as PLL input clock it can not be disabled */
      if ((READ_BIT(RCC->CR, RCC_CR_HSIRDY) != 0U) && (RCC_OscInitStruct->HSIState == RCC_HSI_OFF))
 8001104:	6813      	ldr	r3, [r2, #0]
 8001106:	055b      	lsls	r3, r3, #21
 8001108:	d508      	bpl.n	800111c <HAL_RCC_OscConfig+0x6c>
 800110a:	68e3      	ldr	r3, [r4, #12]
 800110c:	2b00      	cmp	r3, #0
 800110e:	d105      	bne.n	800111c <HAL_RCC_OscConfig+0x6c>
    return HAL_ERROR;
 8001110:	2001      	movs	r0, #1
        }
      }
    }
  }
  return HAL_OK;
}
 8001112:	b003      	add	sp, #12
 8001114:	bcc0      	pop	{r6, r7}
 8001116:	46b9      	mov	r9, r7
 8001118:	46b0      	mov	r8, r6
 800111a:	bdf0      	pop	{r4, r5, r6, r7, pc}
        __HAL_RCC_HSI_CALIBRATIONVALUE_ADJUST(RCC_OscInitStruct->HSICalibrationValue);
 800111c:	6851      	ldr	r1, [r2, #4]
 800111e:	6963      	ldr	r3, [r4, #20]
 8001120:	48ab      	ldr	r0, [pc, #684]	@ (80013d0 <HAL_RCC_OscConfig+0x320>)
 8001122:	021b      	lsls	r3, r3, #8
 8001124:	4001      	ands	r1, r0
 8001126:	430b      	orrs	r3, r1
 8001128:	6053      	str	r3, [r2, #4]
          __HAL_RCC_HSI_CONFIG(RCC_OscInitStruct->HSIDiv);
 800112a:	4aa8      	ldr	r2, [pc, #672]	@ (80013cc <HAL_RCC_OscConfig+0x31c>)
 800112c:	49a9      	ldr	r1, [pc, #676]	@ (80013d4 <HAL_RCC_OscConfig+0x324>)
 800112e:	6813      	ldr	r3, [r2, #0]
 8001130:	400b      	ands	r3, r1
 8001132:	6921      	ldr	r1, [r4, #16]
 8001134:	430b      	orrs	r3, r1
 8001136:	6013      	str	r3, [r2, #0]
          SystemCoreClock = (HSI_VALUE / (1UL << ((READ_BIT(RCC->CR, RCC_CR_HSIDIV)) >> RCC_CR_HSIDIV_Pos)));
 8001138:	6813      	ldr	r3, [r2, #0]
 800113a:	4aa7      	ldr	r2, [pc, #668]	@ (80013d8 <HAL_RCC_OscConfig+0x328>)
 800113c:	049b      	lsls	r3, r3, #18
 800113e:	0f5b      	lsrs	r3, r3, #29
 8001140:	40da      	lsrs	r2, r3
 8001142:	49a6      	ldr	r1, [pc, #664]	@ (80013dc <HAL_RCC_OscConfig+0x32c>)
 8001144:	600a      	str	r2, [r1, #0]
        if (HAL_InitTick(uwTickPrio) != HAL_OK)
 8001146:	4ba6      	ldr	r3, [pc, #664]	@ (80013e0 <HAL_RCC_OscConfig+0x330>)
 8001148:	6818      	ldr	r0, [r3, #0]
 800114a:	f7ff fde7 	bl	8000d1c <HAL_InitTick>
 800114e:	2800      	cmp	r0, #0
 8001150:	d1de      	bne.n	8001110 <HAL_RCC_OscConfig+0x60>
  if (((RCC_OscInitStruct->OscillatorType) & RCC_OSCILLATORTYPE_LSI) == RCC_OSCILLATORTYPE_LSI)
 8001152:	6823      	ldr	r3, [r4, #0]
 8001154:	071a      	lsls	r2, r3, #28
 8001156:	d46d      	bmi.n	8001234 <HAL_RCC_OscConfig+0x184>
  if (((RCC_OscInitStruct->OscillatorType) & RCC_OSCILLATORTYPE_LSE) == RCC_OSCILLATORTYPE_LSE)
 8001158:	075b      	lsls	r3, r3, #29
 800115a:	d545      	bpl.n	80011e8 <HAL_RCC_OscConfig+0x138>
    if (__HAL_RCC_GET_SYSCLK_SOURCE() == RCC_SYSCLKSOURCE_STATUS_LSE)
 800115c:	2338      	movs	r3, #56	@ 0x38
 800115e:	4a9b      	ldr	r2, [pc, #620]	@ (80013cc <HAL_RCC_OscConfig+0x31c>)
 8001160:	6891      	ldr	r1, [r2, #8]
 8001162:	400b      	ands	r3, r1
 8001164:	2b20      	cmp	r3, #32
 8001166:	d100      	bne.n	800116a <HAL_RCC_OscConfig+0xba>
 8001168:	e0cc      	b.n	8001304 <HAL_RCC_OscConfig+0x254>
      if (__HAL_RCC_PWR_IS_CLK_DISABLED() != 0U)
 800116a:	2380      	movs	r3, #128	@ 0x80
    FlagStatus       pwrclkchanged = RESET;
 800116c:	2000      	movs	r0, #0
      if (__HAL_RCC_PWR_IS_CLK_DISABLED() != 0U)
 800116e:	6bd1      	ldr	r1, [r2, #60]	@ 0x3c
 8001170:	055b      	lsls	r3, r3, #21
    FlagStatus       pwrclkchanged = RESET;
 8001172:	4681      	mov	r9, r0
      if (__HAL_RCC_PWR_IS_CLK_DISABLED() != 0U)
 8001174:	4219      	tst	r1, r3
 8001176:	d108      	bne.n	800118a <HAL_RCC_OscConfig+0xda>
        __HAL_RCC_PWR_CLK_ENABLE();
 8001178:	6bd1      	ldr	r1, [r2, #60]	@ 0x3c
 800117a:	4319      	orrs	r1, r3
 800117c:	63d1      	str	r1, [r2, #60]	@ 0x3c
 800117e:	6bd2      	ldr	r2, [r2, #60]	@ 0x3c
 8001180:	4013      	ands	r3, r2
 8001182:	9301      	str	r3, [sp, #4]
 8001184:	9b01      	ldr	r3, [sp, #4]
        pwrclkchanged = SET;
 8001186:	2301      	movs	r3, #1
 8001188:	4699      	mov	r9, r3
      if (HAL_IS_BIT_CLR(PWR->CR1, PWR_CR1_DBP))
 800118a:	2780      	movs	r7, #128	@ 0x80
 800118c:	4e95      	ldr	r6, [pc, #596]	@ (80013e4 <HAL_RCC_OscConfig+0x334>)
 800118e:	007f      	lsls	r7, r7, #1
 8001190:	6833      	ldr	r3, [r6, #0]
 8001192:	423b      	tst	r3, r7
 8001194:	d100      	bne.n	8001198 <HAL_RCC_OscConfig+0xe8>
 8001196:	e0ff      	b.n	8001398 <HAL_RCC_OscConfig+0x2e8>
      __HAL_RCC_LSE_CONFIG(RCC_OscInitStruct->LSEState);
 8001198:	68a3      	ldr	r3, [r4, #8]
 800119a:	2b01      	cmp	r3, #1
 800119c:	d100      	bne.n	80011a0 <HAL_RCC_OscConfig+0xf0>
 800119e:	e0e5      	b.n	800136c <HAL_RCC_OscConfig+0x2bc>
 80011a0:	2b05      	cmp	r3, #5
 80011a2:	d100      	bne.n	80011a6 <HAL_RCC_OscConfig+0xf6>
 80011a4:	e1c8      	b.n	8001538 <HAL_RCC_OscConfig+0x488>
 80011a6:	2101      	movs	r1, #1
 80011a8:	4e88      	ldr	r6, [pc, #544]	@ (80013cc <HAL_RCC_OscConfig+0x31c>)
 80011aa:	6df2      	ldr	r2, [r6, #92]	@ 0x5c
 80011ac:	438a      	bics	r2, r1
 80011ae:	65f2      	str	r2, [r6, #92]	@ 0x5c
 80011b0:	6df2      	ldr	r2, [r6, #92]	@ 0x5c
 80011b2:	3103      	adds	r1, #3
 80011b4:	438a      	bics	r2, r1
 80011b6:	65f2      	str	r2, [r6, #92]	@ 0x5c
      if (RCC_OscInitStruct->LSEState != RCC_LSE_OFF)
 80011b8:	2b00      	cmp	r3, #0
 80011ba:	d000      	beq.n	80011be <HAL_RCC_OscConfig+0x10e>
 80011bc:	e0da      	b.n	8001374 <HAL_RCC_OscConfig+0x2c4>
        tickstart = HAL_GetTick();
 80011be:	f7ff fdf3 	bl	8000da8 <HAL_GetTick>
        while (READ_BIT(RCC->BDCR, RCC_BDCR_LSERDY) != 0U)
 80011c2:	2302      	movs	r3, #2
        tickstart = HAL_GetTick();
 80011c4:	0007      	movs	r7, r0
        while (READ_BIT(RCC->BDCR, RCC_BDCR_LSERDY) != 0U)
 80011c6:	4698      	mov	r8, r3
          if ((HAL_GetTick() - tickstart) > RCC_LSE_TIMEOUT_VALUE)
 80011c8:	4d87      	ldr	r5, [pc, #540]	@ (80013e8 <HAL_RCC_OscConfig+0x338>)
        while (READ_BIT(RCC->BDCR, RCC_BDCR_LSERDY) != 0U)
 80011ca:	e005      	b.n	80011d8 <HAL_RCC_OscConfig+0x128>
          if ((HAL_GetTick() - tickstart) > RCC_LSE_TIMEOUT_VALUE)
 80011cc:	f7ff fdec 	bl	8000da8 <HAL_GetTick>
 80011d0:	1bc0      	subs	r0, r0, r7
 80011d2:	42a8      	cmp	r0, r5
 80011d4:	d900      	bls.n	80011d8 <HAL_RCC_OscConfig+0x128>
 80011d6:	e0ee      	b.n	80013b6 <HAL_RCC_OscConfig+0x306>
        while (READ_BIT(RCC->BDCR, RCC_BDCR_LSERDY) != 0U)
 80011d8:	4642      	mov	r2, r8
 80011da:	6df3      	ldr	r3, [r6, #92]	@ 0x5c
 80011dc:	421a      	tst	r2, r3
 80011de:	d1f5      	bne.n	80011cc <HAL_RCC_OscConfig+0x11c>
      if (pwrclkchanged == SET)
 80011e0:	464b      	mov	r3, r9
 80011e2:	2b01      	cmp	r3, #1
 80011e4:	d100      	bne.n	80011e8 <HAL_RCC_OscConfig+0x138>
 80011e6:	e163      	b.n	80014b0 <HAL_RCC_OscConfig+0x400>
  if (RCC_OscInitStruct->PLL.PLLState != RCC_PLL_NONE)
 80011e8:	69e3      	ldr	r3, [r4, #28]
 80011ea:	2b00      	cmp	r3, #0
 80011ec:	d020      	beq.n	8001230 <HAL_RCC_OscConfig+0x180>
    if (__HAL_RCC_GET_SYSCLK_SOURCE() != RCC_SYSCLKSOURCE_STATUS_PLLCLK)
 80011ee:	2238      	movs	r2, #56	@ 0x38
 80011f0:	4d76      	ldr	r5, [pc, #472]	@ (80013cc <HAL_RCC_OscConfig+0x31c>)
 80011f2:	68a9      	ldr	r1, [r5, #8]
 80011f4:	400a      	ands	r2, r1
 80011f6:	2a10      	cmp	r2, #16
 80011f8:	d100      	bne.n	80011fc <HAL_RCC_OscConfig+0x14c>
 80011fa:	e11d      	b.n	8001438 <HAL_RCC_OscConfig+0x388>
      if (RCC_OscInitStruct->PLL.PLLState == RCC_PLL_ON)
 80011fc:	2b02      	cmp	r3, #2
 80011fe:	d100      	bne.n	8001202 <HAL_RCC_OscConfig+0x152>
 8001200:	e15c      	b.n	80014bc <HAL_RCC_OscConfig+0x40c>
        __HAL_RCC_PLL_DISABLE();
 8001202:	682b      	ldr	r3, [r5, #0]
 8001204:	4a79      	ldr	r2, [pc, #484]	@ (80013ec <HAL_RCC_OscConfig+0x33c>)
        while (READ_BIT(RCC->CR, RCC_CR_PLLRDY) != 0U)
 8001206:	2680      	movs	r6, #128	@ 0x80
        __HAL_RCC_PLL_DISABLE();
 8001208:	4013      	ands	r3, r2
 800120a:	602b      	str	r3, [r5, #0]
        tickstart = HAL_GetTick();
 800120c:	f7ff fdcc 	bl	8000da8 <HAL_GetTick>
        while (READ_BIT(RCC->CR, RCC_CR_PLLRDY) != 0U)
 8001210:	04b6      	lsls	r6, r6, #18
        tickstart = HAL_GetTick();
 8001212:	0004      	movs	r4, r0
        while (READ_BIT(RCC->CR, RCC_CR_PLLRDY) != 0U)
 8001214:	e005      	b.n	8001222 <HAL_RCC_OscConfig+0x172>
          if ((HAL_GetTick() - tickstart) > PLL_TIMEOUT_VALUE)
 8001216:	f7ff fdc7 	bl	8000da8 <HAL_GetTick>
 800121a:	1b00      	subs	r0, r0, r4
 800121c:	2802      	cmp	r0, #2
 800121e:	d900      	bls.n	8001222 <HAL_RCC_OscConfig+0x172>
 8001220:	e0c9      	b.n	80013b6 <HAL_RCC_OscConfig+0x306>
        while (READ_BIT(RCC->CR, RCC_CR_PLLRDY) != 0U)
 8001222:	682b      	ldr	r3, [r5, #0]
 8001224:	4233      	tst	r3, r6
 8001226:	d1f6      	bne.n	8001216 <HAL_RCC_OscConfig+0x166>
        RCC->PLLCFGR &= ~(RCC_PLLCFGR_PLLSRC | RCC_PLLCFGR_PLLPEN | RCC_PLLCFGR_PLLREN);
 8001228:	68eb      	ldr	r3, [r5, #12]
 800122a:	4a71      	ldr	r2, [pc, #452]	@ (80013f0 <HAL_RCC_OscConfig+0x340>)
 800122c:	4013      	ands	r3, r2
 800122e:	60eb      	str	r3, [r5, #12]
  return HAL_OK;
 8001230:	2000      	movs	r0, #0
 8001232:	e76e      	b.n	8001112 <HAL_RCC_OscConfig+0x62>
    if (__HAL_RCC_GET_SYSCLK_SOURCE() == RCC_SYSCLKSOURCE_STATUS_LSI)
 8001234:	2238      	movs	r2, #56	@ 0x38
 8001236:	4d65      	ldr	r5, [pc, #404]	@ (80013cc <HAL_RCC_OscConfig+0x31c>)
 8001238:	68a9      	ldr	r1, [r5, #8]
 800123a:	400a      	ands	r2, r1
 800123c:	2a18      	cmp	r2, #24
 800123e:	d043      	beq.n	80012c8 <HAL_RCC_OscConfig+0x218>
      if (RCC_OscInitStruct->LSIState != RCC_LSI_OFF)
 8001240:	69a3      	ldr	r3, [r4, #24]
 8001242:	2b00      	cmp	r3, #0
 8001244:	d100      	bne.n	8001248 <HAL_RCC_OscConfig+0x198>
 8001246:	e0b8      	b.n	80013ba <HAL_RCC_OscConfig+0x30a>
        __HAL_RCC_LSI_ENABLE();
 8001248:	2201      	movs	r2, #1
 800124a:	6e2b      	ldr	r3, [r5, #96]	@ 0x60
        while (READ_BIT(RCC->CSR, RCC_CSR_LSIRDY) == 0U)
 800124c:	2702      	movs	r7, #2
        __HAL_RCC_LSI_ENABLE();
 800124e:	4313      	orrs	r3, r2
 8001250:	662b      	str	r3, [r5, #96]	@ 0x60
        tickstart = HAL_GetTick();
 8001252:	f7ff fda9 	bl	8000da8 <HAL_GetTick>
 8001256:	0006      	movs	r6, r0
        while (READ_BIT(RCC->CSR, RCC_CSR_LSIRDY) == 0U)
 8001258:	e005      	b.n	8001266 <HAL_RCC_OscConfig+0x1b6>
          if ((HAL_GetTick() - tickstart) > LSI_TIMEOUT_VALUE)
 800125a:	f7ff fda5 	bl	8000da8 <HAL_GetTick>
 800125e:	1b80      	subs	r0, r0, r6
 8001260:	2802      	cmp	r0, #2
 8001262:	d900      	bls.n	8001266 <HAL_RCC_OscConfig+0x1b6>
 8001264:	e0a7      	b.n	80013b6 <HAL_RCC_OscConfig+0x306>
        while (READ_BIT(RCC->CSR, RCC_CSR_LSIRDY) == 0U)
 8001266:	6e2b      	ldr	r3, [r5, #96]	@ 0x60
 8001268:	421f      	tst	r7, r3
 800126a:	d0f6      	beq.n	800125a <HAL_RCC_OscConfig+0x1aa>
  if (((RCC_OscInitStruct->OscillatorType) & RCC_OSCILLATORTYPE_LSE) == RCC_OSCILLATORTYPE_LSE)
 800126c:	6823      	ldr	r3, [r4, #0]
 800126e:	e773      	b.n	8001158 <HAL_RCC_OscConfig+0xa8>
    temp_pllckcfg = __HAL_RCC_GET_PLL_OSCSOURCE();
 8001270:	43c9      	mvns	r1, r1
    if (((temp_sysclksrc == RCC_SYSCLKSOURCE_STATUS_PLLCLK) && (temp_pllckcfg == RCC_PLLSOURCE_HSE))
 8001272:	0789      	lsls	r1, r1, #30
 8001274:	d100      	bne.n	8001278 <HAL_RCC_OscConfig+0x1c8>
 8001276:	e731      	b.n	80010dc <HAL_RCC_OscConfig+0x2c>
      __HAL_RCC_HSE_CONFIG(RCC_OscInitStruct->HSEState);
 8001278:	2280      	movs	r2, #128	@ 0x80
 800127a:	6863      	ldr	r3, [r4, #4]
 800127c:	0252      	lsls	r2, r2, #9
 800127e:	4293      	cmp	r3, r2
 8001280:	d02b      	beq.n	80012da <HAL_RCC_OscConfig+0x22a>
 8001282:	21a0      	movs	r1, #160	@ 0xa0
 8001284:	02c9      	lsls	r1, r1, #11
 8001286:	428b      	cmp	r3, r1
 8001288:	d100      	bne.n	800128c <HAL_RCC_OscConfig+0x1dc>
 800128a:	e0fc      	b.n	8001486 <HAL_RCC_OscConfig+0x3d6>
 800128c:	4d4f      	ldr	r5, [pc, #316]	@ (80013cc <HAL_RCC_OscConfig+0x31c>)
 800128e:	4959      	ldr	r1, [pc, #356]	@ (80013f4 <HAL_RCC_OscConfig+0x344>)
 8001290:	682a      	ldr	r2, [r5, #0]
 8001292:	400a      	ands	r2, r1
 8001294:	602a      	str	r2, [r5, #0]
 8001296:	682a      	ldr	r2, [r5, #0]
 8001298:	4957      	ldr	r1, [pc, #348]	@ (80013f8 <HAL_RCC_OscConfig+0x348>)
 800129a:	400a      	ands	r2, r1
 800129c:	602a      	str	r2, [r5, #0]
      if (RCC_OscInitStruct->HSEState != RCC_HSE_OFF)
 800129e:	2b00      	cmp	r3, #0
 80012a0:	d11f      	bne.n	80012e2 <HAL_RCC_OscConfig+0x232>
        tickstart = HAL_GetTick();
 80012a2:	f7ff fd81 	bl	8000da8 <HAL_GetTick>
        while (READ_BIT(RCC->CR, RCC_CR_HSERDY) != 0U)
 80012a6:	2780      	movs	r7, #128	@ 0x80
        tickstart = HAL_GetTick();
 80012a8:	0006      	movs	r6, r0
        while (READ_BIT(RCC->CR, RCC_CR_HSERDY) != 0U)
 80012aa:	02bf      	lsls	r7, r7, #10
 80012ac:	e004      	b.n	80012b8 <HAL_RCC_OscConfig+0x208>
          if ((HAL_GetTick() - tickstart) > HSE_TIMEOUT_VALUE)
 80012ae:	f7ff fd7b 	bl	8000da8 <HAL_GetTick>
 80012b2:	1b80      	subs	r0, r0, r6
 80012b4:	2864      	cmp	r0, #100	@ 0x64
 80012b6:	d87e      	bhi.n	80013b6 <HAL_RCC_OscConfig+0x306>
        while (READ_BIT(RCC->CR, RCC_CR_HSERDY) != 0U)
 80012b8:	682b      	ldr	r3, [r5, #0]
 80012ba:	423b      	tst	r3, r7
 80012bc:	d1f7      	bne.n	80012ae <HAL_RCC_OscConfig+0x1fe>
  if (((RCC_OscInitStruct->OscillatorType) & RCC_OSCILLATORTYPE_HSI) == RCC_OSCILLATORTYPE_HSI)
 80012be:	6823      	ldr	r3, [r4, #0]
 80012c0:	079a      	lsls	r2, r3, #30
 80012c2:	d400      	bmi.n	80012c6 <HAL_RCC_OscConfig+0x216>
 80012c4:	e746      	b.n	8001154 <HAL_RCC_OscConfig+0xa4>
 80012c6:	e712      	b.n	80010ee <HAL_RCC_OscConfig+0x3e>
      if ((((RCC->CSR) & RCC_CSR_LSIRDY) != 0U) && (RCC_OscInitStruct->LSIState == RCC_LSI_OFF))
 80012c8:	6e2a      	ldr	r2, [r5, #96]	@ 0x60
 80012ca:	0792      	lsls	r2, r2, #30
 80012cc:	d400      	bmi.n	80012d0 <HAL_RCC_OscConfig+0x220>
 80012ce:	e743      	b.n	8001158 <HAL_RCC_OscConfig+0xa8>
 80012d0:	69a2      	ldr	r2, [r4, #24]
 80012d2:	2a00      	cmp	r2, #0
 80012d4:	d000      	beq.n	80012d8 <HAL_RCC_OscConfig+0x228>
 80012d6:	e73f      	b.n	8001158 <HAL_RCC_OscConfig+0xa8>
 80012d8:	e71a      	b.n	8001110 <HAL_RCC_OscConfig+0x60>
      __HAL_RCC_HSE_CONFIG(RCC_OscInitStruct->HSEState);
 80012da:	4a3c      	ldr	r2, [pc, #240]	@ (80013cc <HAL_RCC_OscConfig+0x31c>)
 80012dc:	6811      	ldr	r1, [r2, #0]
 80012de:	430b      	orrs	r3, r1
 80012e0:	6013      	str	r3, [r2, #0]
        tickstart = HAL_GetTick();
 80012e2:	f7ff fd61 	bl	8000da8 <HAL_GetTick>
        while (READ_BIT(RCC->CR, RCC_CR_HSERDY) == 0U)
 80012e6:	2680      	movs	r6, #128	@ 0x80
        tickstart = HAL_GetTick();
 80012e8:	0005      	movs	r5, r0
        while (READ_BIT(RCC->CR, RCC_CR_HSERDY) == 0U)
 80012ea:	4f38      	ldr	r7, [pc, #224]	@ (80013cc <HAL_RCC_OscConfig+0x31c>)
 80012ec:	02b6      	lsls	r6, r6, #10
 80012ee:	e004      	b.n	80012fa <HAL_RCC_OscConfig+0x24a>
          if ((HAL_GetTick() - tickstart) > HSE_TIMEOUT_VALUE)
 80012f0:	f7ff fd5a 	bl	8000da8 <HAL_GetTick>
 80012f4:	1b40      	subs	r0, r0, r5
 80012f6:	2864      	cmp	r0, #100	@ 0x64
 80012f8:	d85d      	bhi.n	80013b6 <HAL_RCC_OscConfig+0x306>
        while (READ_BIT(RCC->CR, RCC_CR_HSERDY) == 0U)
 80012fa:	683b      	ldr	r3, [r7, #0]
 80012fc:	4233      	tst	r3, r6
 80012fe:	d0f7      	beq.n	80012f0 <HAL_RCC_OscConfig+0x240>
  if (((RCC_OscInitStruct->OscillatorType) & RCC_OSCILLATORTYPE_HSI) == RCC_OSCILLATORTYPE_HSI)
 8001300:	6823      	ldr	r3, [r4, #0]
 8001302:	e7dd      	b.n	80012c0 <HAL_RCC_OscConfig+0x210>
      if ((((RCC->BDCR) & RCC_BDCR_LSERDY) != 0U) && (RCC_OscInitStruct->LSEState == RCC_LSE_OFF))
 8001304:	6dd3      	ldr	r3, [r2, #92]	@ 0x5c
 8001306:	079b      	lsls	r3, r3, #30
 8001308:	d400      	bmi.n	800130c <HAL_RCC_OscConfig+0x25c>
 800130a:	e76d      	b.n	80011e8 <HAL_RCC_OscConfig+0x138>
 800130c:	68a3      	ldr	r3, [r4, #8]
 800130e:	2b00      	cmp	r3, #0
 8001310:	d000      	beq.n	8001314 <HAL_RCC_OscConfig+0x264>
 8001312:	e769      	b.n	80011e8 <HAL_RCC_OscConfig+0x138>
 8001314:	e6fc      	b.n	8001110 <HAL_RCC_OscConfig+0x60>
    temp_pllckcfg = __HAL_RCC_GET_PLL_OSCSOURCE();
 8001316:	3b0d      	subs	r3, #13
 8001318:	400b      	ands	r3, r1
    if (((temp_sysclksrc == RCC_SYSCLKSOURCE_STATUS_PLLCLK) && (temp_pllckcfg == RCC_PLLSOURCE_HSI))
 800131a:	2b02      	cmp	r3, #2
 800131c:	d100      	bne.n	8001320 <HAL_RCC_OscConfig+0x270>
 800131e:	e0bc      	b.n	800149a <HAL_RCC_OscConfig+0x3ea>
      if (RCC_OscInitStruct->HSIState != RCC_HSI_OFF)
 8001320:	68e3      	ldr	r3, [r4, #12]
        __HAL_RCC_HSI_CONFIG(RCC_OscInitStruct->HSIDiv);
 8001322:	4d2a      	ldr	r5, [pc, #168]	@ (80013cc <HAL_RCC_OscConfig+0x31c>)
      if (RCC_OscInitStruct->HSIState != RCC_HSI_OFF)
 8001324:	2b00      	cmp	r3, #0
 8001326:	d073      	beq.n	8001410 <HAL_RCC_OscConfig+0x360>
        __HAL_RCC_HSI_CONFIG(RCC_OscInitStruct->HSIDiv);
 8001328:	682b      	ldr	r3, [r5, #0]
 800132a:	4a2a      	ldr	r2, [pc, #168]	@ (80013d4 <HAL_RCC_OscConfig+0x324>)
        while (READ_BIT(RCC->CR, RCC_CR_HSIRDY) == 0U)
 800132c:	2780      	movs	r7, #128	@ 0x80
        __HAL_RCC_HSI_CONFIG(RCC_OscInitStruct->HSIDiv);
 800132e:	4013      	ands	r3, r2
 8001330:	6922      	ldr	r2, [r4, #16]
        while (READ_BIT(RCC->CR, RCC_CR_HSIRDY) == 0U)
 8001332:	00ff      	lsls	r7, r7, #3
        __HAL_RCC_HSI_CONFIG(RCC_OscInitStruct->HSIDiv);
 8001334:	4313      	orrs	r3, r2
 8001336:	602b      	str	r3, [r5, #0]
        __HAL_RCC_HSI_ENABLE();
 8001338:	2380      	movs	r3, #128	@ 0x80
 800133a:	682a      	ldr	r2, [r5, #0]
 800133c:	005b      	lsls	r3, r3, #1
 800133e:	4313      	orrs	r3, r2
 8001340:	602b      	str	r3, [r5, #0]
        tickstart = HAL_GetTick();
 8001342:	f7ff fd31 	bl	8000da8 <HAL_GetTick>
 8001346:	0006      	movs	r6, r0
        while (READ_BIT(RCC->CR, RCC_CR_HSIRDY) == 0U)
 8001348:	e004      	b.n	8001354 <HAL_RCC_OscConfig+0x2a4>
          if ((HAL_GetTick() - tickstart) > HSI_TIMEOUT_VALUE)
 800134a:	f7ff fd2d 	bl	8000da8 <HAL_GetTick>
 800134e:	1b80      	subs	r0, r0, r6
 8001350:	2802      	cmp	r0, #2
 8001352:	d830      	bhi.n	80013b6 <HAL_RCC_OscConfig+0x306>
        while (READ_BIT(RCC->CR, RCC_CR_HSIRDY) == 0U)
 8001354:	682b      	ldr	r3, [r5, #0]
 8001356:	423b      	tst	r3, r7
 8001358:	d0f7      	beq.n	800134a <HAL_RCC_OscConfig+0x29a>
        __HAL_RCC_HSI_CALIBRATIONVALUE_ADJUST(RCC_OscInitStruct->HSICalibrationValue);
 800135a:	686a      	ldr	r2, [r5, #4]
 800135c:	6963      	ldr	r3, [r4, #20]
 800135e:	491c      	ldr	r1, [pc, #112]	@ (80013d0 <HAL_RCC_OscConfig+0x320>)
 8001360:	021b      	lsls	r3, r3, #8
 8001362:	400a      	ands	r2, r1
 8001364:	4313      	orrs	r3, r2
 8001366:	606b      	str	r3, [r5, #4]
  if (((RCC_OscInitStruct->OscillatorType) & RCC_OSCILLATORTYPE_LSI) == RCC_OSCILLATORTYPE_LSI)
 8001368:	6823      	ldr	r3, [r4, #0]
 800136a:	e6f3      	b.n	8001154 <HAL_RCC_OscConfig+0xa4>
      __HAL_RCC_LSE_CONFIG(RCC_OscInitStruct->LSEState);
 800136c:	4917      	ldr	r1, [pc, #92]	@ (80013cc <HAL_RCC_OscConfig+0x31c>)
 800136e:	6dca      	ldr	r2, [r1, #92]	@ 0x5c
 8001370:	4313      	orrs	r3, r2
 8001372:	65cb      	str	r3, [r1, #92]	@ 0x5c
        tickstart = HAL_GetTick();
 8001374:	f7ff fd18 	bl	8000da8 <HAL_GetTick>
        while (READ_BIT(RCC->BDCR, RCC_BDCR_LSERDY) == 0U)
 8001378:	4b14      	ldr	r3, [pc, #80]	@ (80013cc <HAL_RCC_OscConfig+0x31c>)
        tickstart = HAL_GetTick();
 800137a:	0006      	movs	r6, r0
        while (READ_BIT(RCC->BDCR, RCC_BDCR_LSERDY) == 0U)
 800137c:	4698      	mov	r8, r3
 800137e:	2702      	movs	r7, #2
          if ((HAL_GetTick() - tickstart) > RCC_LSE_TIMEOUT_VALUE)
 8001380:	4d19      	ldr	r5, [pc, #100]	@ (80013e8 <HAL_RCC_OscConfig+0x338>)
        while (READ_BIT(RCC->BDCR, RCC_BDCR_LSERDY) == 0U)
 8001382:	e004      	b.n	800138e <HAL_RCC_OscConfig+0x2de>
          if ((HAL_GetTick() - tickstart) > RCC_LSE_TIMEOUT_VALUE)
 8001384:	f7ff fd10 	bl	8000da8 <HAL_GetTick>
 8001388:	1b80      	subs	r0, r0, r6
 800138a:	42a8      	cmp	r0, r5
 800138c:	d813      	bhi.n	80013b6 <HAL_RCC_OscConfig+0x306>
        while (READ_BIT(RCC->BDCR, RCC_BDCR_LSERDY) == 0U)
 800138e:	4643      	mov	r3, r8
 8001390:	6ddb      	ldr	r3, [r3, #92]	@ 0x5c
 8001392:	421f      	tst	r7, r3
 8001394:	d0f6      	beq.n	8001384 <HAL_RCC_OscConfig+0x2d4>
 8001396:	e723      	b.n	80011e0 <HAL_RCC_OscConfig+0x130>
        SET_BIT(PWR->CR1, PWR_CR1_DBP);
 8001398:	6833      	ldr	r3, [r6, #0]
 800139a:	433b      	orrs	r3, r7
 800139c:	6033      	str	r3, [r6, #0]
        tickstart = HAL_GetTick();
 800139e:	f7ff fd03 	bl	8000da8 <HAL_GetTick>
 80013a2:	0005      	movs	r5, r0
        while (HAL_IS_BIT_CLR(PWR->CR1, PWR_CR1_DBP))
 80013a4:	6833      	ldr	r3, [r6, #0]
 80013a6:	423b      	tst	r3, r7
 80013a8:	d000      	beq.n	80013ac <HAL_RCC_OscConfig+0x2fc>
 80013aa:	e6f5      	b.n	8001198 <HAL_RCC_OscConfig+0xe8>
          if ((HAL_GetTick() - tickstart) > RCC_DBP_TIMEOUT_VALUE)
 80013ac:	f7ff fcfc 	bl	8000da8 <HAL_GetTick>
 80013b0:	1b40      	subs	r0, r0, r5
 80013b2:	2802      	cmp	r0, #2
 80013b4:	d9f6      	bls.n	80013a4 <HAL_RCC_OscConfig+0x2f4>
            return HAL_TIMEOUT;
 80013b6:	2003      	movs	r0, #3
 80013b8:	e6ab      	b.n	8001112 <HAL_RCC_OscConfig+0x62>
        __HAL_RCC_LSI_DISABLE();
 80013ba:	2201      	movs	r2, #1
 80013bc:	6e2b      	ldr	r3, [r5, #96]	@ 0x60
        while (READ_BIT(RCC->CSR, RCC_CSR_LSIRDY) != 0U)
 80013be:	2702      	movs	r7, #2
        __HAL_RCC_LSI_DISABLE();
 80013c0:	4393      	bics	r3, r2
 80013c2:	662b      	str	r3, [r5, #96]	@ 0x60
        tickstart = HAL_GetTick();
 80013c4:	f7ff fcf0 	bl	8000da8 <HAL_GetTick>
 80013c8:	0006      	movs	r6, r0
        while (READ_BIT(RCC->CSR, RCC_CSR_LSIRDY) != 0U)
 80013ca:	e01c      	b.n	8001406 <HAL_RCC_OscConfig+0x356>
 80013cc:	40021000 	.word	0x40021000
 80013d0:	ffff80ff 	.word	0xffff80ff
 80013d4:	ffffc7ff 	.word	0xffffc7ff
 80013d8:	00f42400 	.word	0x00f42400
 80013dc:	20000668 	.word	0x20000668
 80013e0:	20000670 	.word	0x20000670
 80013e4:	40007000 	.word	0x40007000
 80013e8:	00001388 	.word	0x00001388
 80013ec:	feffffff 	.word	0xfeffffff
 80013f0:	effefffc 	.word	0xeffefffc
 80013f4:	fffeffff 	.word	0xfffeffff
 80013f8:	fffbffff 	.word	0xfffbffff
          if ((HAL_GetTick() - tickstart) > LSI_TIMEOUT_VALUE)
 80013fc:	f7ff fcd4 	bl	8000da8 <HAL_GetTick>
 8001400:	1b80      	subs	r0, r0, r6
 8001402:	2802      	cmp	r0, #2
 8001404:	d8d7      	bhi.n	80013b6 <HAL_RCC_OscConfig+0x306>
        while (READ_BIT(RCC->CSR, RCC_CSR_LSIRDY) != 0U)
 8001406:	6e2b      	ldr	r3, [r5, #96]	@ 0x60
 8001408:	421f      	tst	r7, r3
 800140a:	d1f7      	bne.n	80013fc <HAL_RCC_OscConfig+0x34c>
  if (((RCC_OscInitStruct->OscillatorType) & RCC_OSCILLATORTYPE_LSE) == RCC_OSCILLATORTYPE_LSE)
 800140c:	6823      	ldr	r3, [r4, #0]
 800140e:	e6a3      	b.n	8001158 <HAL_RCC_OscConfig+0xa8>
        __HAL_RCC_HSI_DISABLE();
 8001410:	682b      	ldr	r3, [r5, #0]
 8001412:	4a50      	ldr	r2, [pc, #320]	@ (8001554 <HAL_RCC_OscConfig+0x4a4>)
        while (READ_BIT(RCC->CR, RCC_CR_HSIRDY) != 0U)
 8001414:	2780      	movs	r7, #128	@ 0x80
        __HAL_RCC_HSI_DISABLE();
 8001416:	4013      	ands	r3, r2
 8001418:	602b      	str	r3, [r5, #0]
        tickstart = HAL_GetTick();
 800141a:	f7ff fcc5 	bl	8000da8 <HAL_GetTick>
        while (READ_BIT(RCC->CR, RCC_CR_HSIRDY) != 0U)
 800141e:	00ff      	lsls	r7, r7, #3
        tickstart = HAL_GetTick();
 8001420:	0006      	movs	r6, r0
        while (READ_BIT(RCC->CR, RCC_CR_HSIRDY) != 0U)
 8001422:	e004      	b.n	800142e <HAL_RCC_OscConfig+0x37e>
          if ((HAL_GetTick() - tickstart) > HSI_TIMEOUT_VALUE)
 8001424:	f7ff fcc0 	bl	8000da8 <HAL_GetTick>
 8001428:	1b80      	subs	r0, r0, r6
 800142a:	2802      	cmp	r0, #2
 800142c:	d8c3      	bhi.n	80013b6 <HAL_RCC_OscConfig+0x306>
        while (READ_BIT(RCC->CR, RCC_CR_HSIRDY) != 0U)
 800142e:	682b      	ldr	r3, [r5, #0]
 8001430:	423b      	tst	r3, r7
 8001432:	d1f7      	bne.n	8001424 <HAL_RCC_OscConfig+0x374>
  if (((RCC_OscInitStruct->OscillatorType) & RCC_OSCILLATORTYPE_LSI) == RCC_OSCILLATORTYPE_LSI)
 8001434:	6823      	ldr	r3, [r4, #0]
 8001436:	e68d      	b.n	8001154 <HAL_RCC_OscConfig+0xa4>
      if ((RCC_OscInitStruct->PLL.PLLState) == RCC_PLL_OFF)
 8001438:	2b01      	cmp	r3, #1
 800143a:	d100      	bne.n	800143e <HAL_RCC_OscConfig+0x38e>
 800143c:	e668      	b.n	8001110 <HAL_RCC_OscConfig+0x60>
        if ((READ_BIT(temp_pllckcfg, RCC_PLLCFGR_PLLSRC) != RCC_OscInitStruct->PLL.PLLSource) ||
 800143e:	2203      	movs	r2, #3
        temp_pllckcfg = RCC->PLLCFGR;
 8001440:	68e8      	ldr	r0, [r5, #12]
        if ((READ_BIT(temp_pllckcfg, RCC_PLLCFGR_PLLSRC) != RCC_OscInitStruct->PLL.PLLSource) ||
 8001442:	6a21      	ldr	r1, [r4, #32]
 8001444:	4002      	ands	r2, r0
 8001446:	428a      	cmp	r2, r1
 8001448:	d000      	beq.n	800144c <HAL_RCC_OscConfig+0x39c>
 800144a:	e661      	b.n	8001110 <HAL_RCC_OscConfig+0x60>
            (READ_BIT(temp_pllckcfg, RCC_PLLCFGR_PLLM) != RCC_OscInitStruct->PLL.PLLM) ||
 800144c:	2270      	movs	r2, #112	@ 0x70
        if ((READ_BIT(temp_pllckcfg, RCC_PLLCFGR_PLLSRC) != RCC_OscInitStruct->PLL.PLLSource) ||
 800144e:	6a61      	ldr	r1, [r4, #36]	@ 0x24
            (READ_BIT(temp_pllckcfg, RCC_PLLCFGR_PLLM) != RCC_OscInitStruct->PLL.PLLM) ||
 8001450:	4002      	ands	r2, r0
        if ((READ_BIT(temp_pllckcfg, RCC_PLLCFGR_PLLSRC) != RCC_OscInitStruct->PLL.PLLSource) ||
 8001452:	428a      	cmp	r2, r1
 8001454:	d000      	beq.n	8001458 <HAL_RCC_OscConfig+0x3a8>
 8001456:	e65b      	b.n	8001110 <HAL_RCC_OscConfig+0x60>
            (READ_BIT(temp_pllckcfg, RCC_PLLCFGR_PLLN) != (RCC_OscInitStruct->PLL.PLLN << RCC_PLLCFGR_PLLN_Pos)) ||
 8001458:	21fe      	movs	r1, #254	@ 0xfe
 800145a:	6aa2      	ldr	r2, [r4, #40]	@ 0x28
 800145c:	01c9      	lsls	r1, r1, #7
 800145e:	4001      	ands	r1, r0
 8001460:	0212      	lsls	r2, r2, #8
            (READ_BIT(temp_pllckcfg, RCC_PLLCFGR_PLLM) != RCC_OscInitStruct->PLL.PLLM) ||
 8001462:	4291      	cmp	r1, r2
 8001464:	d000      	beq.n	8001468 <HAL_RCC_OscConfig+0x3b8>
 8001466:	e653      	b.n	8001110 <HAL_RCC_OscConfig+0x60>
            (READ_BIT(temp_pllckcfg, RCC_PLLCFGR_PLLP) != RCC_OscInitStruct->PLL.PLLP) ||
 8001468:	22f8      	movs	r2, #248	@ 0xf8
            (READ_BIT(temp_pllckcfg, RCC_PLLCFGR_PLLN) != (RCC_OscInitStruct->PLL.PLLN << RCC_PLLCFGR_PLLN_Pos)) ||
 800146a:	6ae1      	ldr	r1, [r4, #44]	@ 0x2c
            (READ_BIT(temp_pllckcfg, RCC_PLLCFGR_PLLP) != RCC_OscInitStruct->PLL.PLLP) ||
 800146c:	0392      	lsls	r2, r2, #14
 800146e:	4002      	ands	r2, r0
            (READ_BIT(temp_pllckcfg, RCC_PLLCFGR_PLLN) != (RCC_OscInitStruct->PLL.PLLN << RCC_PLLCFGR_PLLN_Pos)) ||
 8001470:	428a      	cmp	r2, r1
 8001472:	d000      	beq.n	8001476 <HAL_RCC_OscConfig+0x3c6>
 8001474:	e64c      	b.n	8001110 <HAL_RCC_OscConfig+0x60>
            (READ_BIT(temp_pllckcfg, RCC_PLLCFGR_PLLP) != RCC_OscInitStruct->PLL.PLLP) ||
 8001476:	6b23      	ldr	r3, [r4, #48]	@ 0x30
            (READ_BIT(temp_pllckcfg, RCC_PLLCFGR_PLLR) != RCC_OscInitStruct->PLL.PLLR))
 8001478:	0f40      	lsrs	r0, r0, #29
 800147a:	0740      	lsls	r0, r0, #29
            (READ_BIT(temp_pllckcfg, RCC_PLLCFGR_PLLP) != RCC_OscInitStruct->PLL.PLLP) ||
 800147c:	1ac0      	subs	r0, r0, r3
 800147e:	1e43      	subs	r3, r0, #1
 8001480:	4198      	sbcs	r0, r3
 8001482:	b2c0      	uxtb	r0, r0
 8001484:	e645      	b.n	8001112 <HAL_RCC_OscConfig+0x62>
      __HAL_RCC_HSE_CONFIG(RCC_OscInitStruct->HSEState);
 8001486:	2180      	movs	r1, #128	@ 0x80
 8001488:	4b33      	ldr	r3, [pc, #204]	@ (8001558 <HAL_RCC_OscConfig+0x4a8>)
 800148a:	02c9      	lsls	r1, r1, #11
 800148c:	6818      	ldr	r0, [r3, #0]
 800148e:	4301      	orrs	r1, r0
 8001490:	6019      	str	r1, [r3, #0]
 8001492:	6819      	ldr	r1, [r3, #0]
 8001494:	430a      	orrs	r2, r1
 8001496:	601a      	str	r2, [r3, #0]
      if (RCC_OscInitStruct->HSEState != RCC_HSE_OFF)
 8001498:	e723      	b.n	80012e2 <HAL_RCC_OscConfig+0x232>
      if ((READ_BIT(RCC->CR, RCC_CR_HSIRDY) != 0U) && (RCC_OscInitStruct->HSIState == RCC_HSI_OFF))
 800149a:	6813      	ldr	r3, [r2, #0]
 800149c:	055b      	lsls	r3, r3, #21
 800149e:	d455      	bmi.n	800154c <HAL_RCC_OscConfig+0x49c>
        __HAL_RCC_HSI_CALIBRATIONVALUE_ADJUST(RCC_OscInitStruct->HSICalibrationValue);
 80014a0:	6851      	ldr	r1, [r2, #4]
 80014a2:	6963      	ldr	r3, [r4, #20]
 80014a4:	482d      	ldr	r0, [pc, #180]	@ (800155c <HAL_RCC_OscConfig+0x4ac>)
 80014a6:	021b      	lsls	r3, r3, #8
 80014a8:	4001      	ands	r1, r0
 80014aa:	430b      	orrs	r3, r1
 80014ac:	6053      	str	r3, [r2, #4]
        if (temp_sysclksrc == RCC_SYSCLKSOURCE_STATUS_HSI)
 80014ae:	e64a      	b.n	8001146 <HAL_RCC_OscConfig+0x96>
        __HAL_RCC_PWR_CLK_DISABLE();
 80014b0:	4a29      	ldr	r2, [pc, #164]	@ (8001558 <HAL_RCC_OscConfig+0x4a8>)
 80014b2:	492b      	ldr	r1, [pc, #172]	@ (8001560 <HAL_RCC_OscConfig+0x4b0>)
 80014b4:	6bd3      	ldr	r3, [r2, #60]	@ 0x3c
 80014b6:	400b      	ands	r3, r1
 80014b8:	63d3      	str	r3, [r2, #60]	@ 0x3c
 80014ba:	e695      	b.n	80011e8 <HAL_RCC_OscConfig+0x138>
        __HAL_RCC_PLL_DISABLE();
 80014bc:	682b      	ldr	r3, [r5, #0]
 80014be:	4a29      	ldr	r2, [pc, #164]	@ (8001564 <HAL_RCC_OscConfig+0x4b4>)
        while (READ_BIT(RCC->CR, RCC_CR_PLLRDY) != 0U)
 80014c0:	2780      	movs	r7, #128	@ 0x80
        __HAL_RCC_PLL_DISABLE();
 80014c2:	4013      	ands	r3, r2
 80014c4:	602b      	str	r3, [r5, #0]
        tickstart = HAL_GetTick();
 80014c6:	f7ff fc6f 	bl	8000da8 <HAL_GetTick>
        while (READ_BIT(RCC->CR, RCC_CR_PLLRDY) != 0U)
 80014ca:	04bf      	lsls	r7, r7, #18
        tickstart = HAL_GetTick();
 80014cc:	0006      	movs	r6, r0
        while (READ_BIT(RCC->CR, RCC_CR_PLLRDY) != 0U)
 80014ce:	e005      	b.n	80014dc <HAL_RCC_OscConfig+0x42c>
          if ((HAL_GetTick() - tickstart) > PLL_TIMEOUT_VALUE)
 80014d0:	f7ff fc6a 	bl	8000da8 <HAL_GetTick>
 80014d4:	1b80      	subs	r0, r0, r6
 80014d6:	2802      	cmp	r0, #2
 80014d8:	d900      	bls.n	80014dc <HAL_RCC_OscConfig+0x42c>
 80014da:	e76c      	b.n	80013b6 <HAL_RCC_OscConfig+0x306>
        while (READ_BIT(RCC->CR, RCC_CR_PLLRDY) != 0U)
 80014dc:	682b      	ldr	r3, [r5, #0]
 80014de:	423b      	tst	r3, r7
 80014e0:	d1f6      	bne.n	80014d0 <HAL_RCC_OscConfig+0x420>
        __HAL_RCC_PLL_CONFIG(RCC_OscInitStruct->PLL.PLLSource,
 80014e2:	6a61      	ldr	r1, [r4, #36]	@ 0x24
 80014e4:	6a23      	ldr	r3, [r4, #32]
 80014e6:	68ea      	ldr	r2, [r5, #12]
 80014e8:	430b      	orrs	r3, r1
 80014ea:	491f      	ldr	r1, [pc, #124]	@ (8001568 <HAL_RCC_OscConfig+0x4b8>)
        while (READ_BIT(RCC->CR, RCC_CR_PLLRDY) == 0U)
 80014ec:	4e1a      	ldr	r6, [pc, #104]	@ (8001558 <HAL_RCC_OscConfig+0x4a8>)
        __HAL_RCC_PLL_CONFIG(RCC_OscInitStruct->PLL.PLLSource,
 80014ee:	400a      	ands	r2, r1
 80014f0:	4313      	orrs	r3, r2
 80014f2:	6ae2      	ldr	r2, [r4, #44]	@ 0x2c
 80014f4:	4313      	orrs	r3, r2
 80014f6:	6b22      	ldr	r2, [r4, #48]	@ 0x30
 80014f8:	4313      	orrs	r3, r2
 80014fa:	6aa2      	ldr	r2, [r4, #40]	@ 0x28
 80014fc:	0212      	lsls	r2, r2, #8
 80014fe:	4313      	orrs	r3, r2
 8001500:	60eb      	str	r3, [r5, #12]
        __HAL_RCC_PLL_ENABLE();
 8001502:	2380      	movs	r3, #128	@ 0x80
 8001504:	682a      	ldr	r2, [r5, #0]
 8001506:	045b      	lsls	r3, r3, #17
 8001508:	4313      	orrs	r3, r2
 800150a:	602b      	str	r3, [r5, #0]
        __HAL_RCC_PLLCLKOUT_ENABLE(RCC_PLLRCLK);
 800150c:	2380      	movs	r3, #128	@ 0x80
 800150e:	68ea      	ldr	r2, [r5, #12]
 8001510:	055b      	lsls	r3, r3, #21
 8001512:	4313      	orrs	r3, r2
 8001514:	60eb      	str	r3, [r5, #12]
        tickstart = HAL_GetTick();
 8001516:	f7ff fc47 	bl	8000da8 <HAL_GetTick>
        while (READ_BIT(RCC->CR, RCC_CR_PLLRDY) == 0U)
 800151a:	2580      	movs	r5, #128	@ 0x80
        tickstart = HAL_GetTick();
 800151c:	0004      	movs	r4, r0
        while (READ_BIT(RCC->CR, RCC_CR_PLLRDY) == 0U)
 800151e:	04ad      	lsls	r5, r5, #18
 8001520:	e005      	b.n	800152e <HAL_RCC_OscConfig+0x47e>
          if ((HAL_GetTick() - tickstart) > PLL_TIMEOUT_VALUE)
 8001522:	f7ff fc41 	bl	8000da8 <HAL_GetTick>
 8001526:	1b00      	subs	r0, r0, r4
 8001528:	2802      	cmp	r0, #2
 800152a:	d900      	bls.n	800152e <HAL_RCC_OscConfig+0x47e>
 800152c:	e743      	b.n	80013b6 <HAL_RCC_OscConfig+0x306>
        while (READ_BIT(RCC->CR, RCC_CR_PLLRDY) == 0U)
 800152e:	6833      	ldr	r3, [r6, #0]
 8001530:	422b      	tst	r3, r5
 8001532:	d0f6      	beq.n	8001522 <HAL_RCC_OscConfig+0x472>
  return HAL_OK;
 8001534:	2000      	movs	r0, #0
 8001536:	e5ec      	b.n	8001112 <HAL_RCC_OscConfig+0x62>
      __HAL_RCC_LSE_CONFIG(RCC_OscInitStruct->LSEState);
 8001538:	2104      	movs	r1, #4
 800153a:	4b07      	ldr	r3, [pc, #28]	@ (8001558 <HAL_RCC_OscConfig+0x4a8>)
 800153c:	6dda      	ldr	r2, [r3, #92]	@ 0x5c
 800153e:	430a      	orrs	r2, r1
 8001540:	65da      	str	r2, [r3, #92]	@ 0x5c
 8001542:	6dda      	ldr	r2, [r3, #92]	@ 0x5c
 8001544:	3903      	subs	r1, #3
 8001546:	430a      	orrs	r2, r1
 8001548:	65da      	str	r2, [r3, #92]	@ 0x5c
      if (RCC_OscInitStruct->LSEState != RCC_LSE_OFF)
 800154a:	e713      	b.n	8001374 <HAL_RCC_OscConfig+0x2c4>
      if ((READ_BIT(RCC->CR, RCC_CR_HSIRDY) != 0U) && (RCC_OscInitStruct->HSIState == RCC_HSI_OFF))
 800154c:	68e3      	ldr	r3, [r4, #12]
 800154e:	2b00      	cmp	r3, #0
 8001550:	d1a6      	bne.n	80014a0 <HAL_RCC_OscConfig+0x3f0>
 8001552:	e5dd      	b.n	8001110 <HAL_RCC_OscConfig+0x60>
 8001554:	fffffeff 	.word	0xfffffeff
 8001558:	40021000 	.word	0x40021000
 800155c:	ffff80ff 	.word	0xffff80ff
 8001560:	efffffff 	.word	0xefffffff
 8001564:	feffffff 	.word	0xfeffffff
 8001568:	1fc1808c 	.word	0x1fc1808c

0800156c <HAL_RCC_GetSysClockFreq>:
uint32_t HAL_RCC_GetSysClockFreq(void)
{
  uint32_t pllvco, pllsource, pllr, pllm, hsidiv;
  uint32_t sysclockfreq;

  if (__HAL_RCC_GET_SYSCLK_SOURCE() == RCC_SYSCLKSOURCE_STATUS_HSI)
 800156c:	2338      	movs	r3, #56	@ 0x38
 800156e:	4a22      	ldr	r2, [pc, #136]	@ (80015f8 <HAL_RCC_GetSysClockFreq+0x8c>)
{
 8001570:	b510      	push	{r4, lr}
  if (__HAL_RCC_GET_SYSCLK_SOURCE() == RCC_SYSCLKSOURCE_STATUS_HSI)
 8001572:	6891      	ldr	r1, [r2, #8]
 8001574:	420b      	tst	r3, r1
 8001576:	d105      	bne.n	8001584 <HAL_RCC_GetSysClockFreq+0x18>
  {
    /* HSISYS can be derived for HSI16 */
    hsidiv = (1UL << ((READ_BIT(RCC->CR, RCC_CR_HSIDIV)) >> RCC_CR_HSIDIV_Pos));
 8001578:	6813      	ldr	r3, [r2, #0]

    /* HSI used as system clock source */
    sysclockfreq = (HSI_VALUE / hsidiv);
 800157a:	4820      	ldr	r0, [pc, #128]	@ (80015fc <HAL_RCC_GetSysClockFreq+0x90>)
    hsidiv = (1UL << ((READ_BIT(RCC->CR, RCC_CR_HSIDIV)) >> RCC_CR_HSIDIV_Pos));
 800157c:	049b      	lsls	r3, r3, #18
 800157e:	0f5b      	lsrs	r3, r3, #29
    sysclockfreq = (HSI_VALUE / hsidiv);
 8001580:	40d8      	lsrs	r0, r3
  {
    sysclockfreq = 0U;
  }

  return sysclockfreq;
}
 8001582:	bd10      	pop	{r4, pc}
  else if (__HAL_RCC_GET_SYSCLK_SOURCE() == RCC_SYSCLKSOURCE_STATUS_HSE)
 8001584:	6891      	ldr	r1, [r2, #8]
 8001586:	4019      	ands	r1, r3
 8001588:	2908      	cmp	r1, #8
 800158a:	d014      	beq.n	80015b6 <HAL_RCC_GetSysClockFreq+0x4a>
  else if (__HAL_RCC_GET_SYSCLK_SOURCE() == RCC_SYSCLKSOURCE_STATUS_PLLCLK)
 800158c:	6891      	ldr	r1, [r2, #8]
 800158e:	4019      	ands	r1, r3
 8001590:	2910      	cmp	r1, #16
 8001592:	d012      	beq.n	80015ba <HAL_RCC_GetSysClockFreq+0x4e>
  else if (__HAL_RCC_GET_SYSCLK_SOURCE() == RCC_SYSCLKSOURCE_STATUS_LSE)
 8001594:	6891      	ldr	r1, [r2, #8]
 8001596:	4019      	ands	r1, r3
 8001598:	2920      	cmp	r1, #32
 800159a:	d024      	beq.n	80015e6 <HAL_RCC_GetSysClockFreq+0x7a>
  else if (__HAL_RCC_GET_SYSCLK_SOURCE() == RCC_SYSCLKSOURCE_STATUS_LSI)
 800159c:	6890      	ldr	r0, [r2, #8]
 800159e:	4018      	ands	r0, r3
    sysclockfreq = LSI_VALUE;
 80015a0:	3818      	subs	r0, #24
 80015a2:	1e43      	subs	r3, r0, #1
 80015a4:	4198      	sbcs	r0, r3
 80015a6:	4b16      	ldr	r3, [pc, #88]	@ (8001600 <HAL_RCC_GetSysClockFreq+0x94>)
 80015a8:	4240      	negs	r0, r0
 80015aa:	4018      	ands	r0, r3
 80015ac:	23fa      	movs	r3, #250	@ 0xfa
 80015ae:	01db      	lsls	r3, r3, #7
 80015b0:	469c      	mov	ip, r3
 80015b2:	4460      	add	r0, ip
 80015b4:	e7e5      	b.n	8001582 <HAL_RCC_GetSysClockFreq+0x16>
    sysclockfreq = HSE_VALUE;
 80015b6:	4813      	ldr	r0, [pc, #76]	@ (8001604 <HAL_RCC_GetSysClockFreq+0x98>)
 80015b8:	e7e3      	b.n	8001582 <HAL_RCC_GetSysClockFreq+0x16>
    pllsource = (RCC->PLLCFGR & RCC_PLLCFGR_PLLSRC);
 80015ba:	68d3      	ldr	r3, [r2, #12]
    pllm = ((RCC->PLLCFGR & RCC_PLLCFGR_PLLM) >> RCC_PLLCFGR_PLLM_Pos) + 1U ;
 80015bc:	68d1      	ldr	r1, [r2, #12]
    pllsource = (RCC->PLLCFGR & RCC_PLLCFGR_PLLSRC);
 80015be:	43db      	mvns	r3, r3
        pllvco = (HSI_VALUE / pllm) * ((RCC->PLLCFGR & RCC_PLLCFGR_PLLN) >> RCC_PLLCFGR_PLLN_Pos) ;
 80015c0:	68d4      	ldr	r4, [r2, #12]
    pllm = ((RCC->PLLCFGR & RCC_PLLCFGR_PLLM) >> RCC_PLLCFGR_PLLM_Pos) + 1U ;
 80015c2:	0649      	lsls	r1, r1, #25
 80015c4:	0f49      	lsrs	r1, r1, #29
        pllvco = (HSI_VALUE / pllm) * ((RCC->PLLCFGR & RCC_PLLCFGR_PLLN) >> RCC_PLLCFGR_PLLN_Pos) ;
 80015c6:	0464      	lsls	r4, r4, #17
    pllm = ((RCC->PLLCFGR & RCC_PLLCFGR_PLLM) >> RCC_PLLCFGR_PLLM_Pos) + 1U ;
 80015c8:	3101      	adds	r1, #1
        pllvco = (HSI_VALUE / pllm) * ((RCC->PLLCFGR & RCC_PLLCFGR_PLLN) >> RCC_PLLCFGR_PLLN_Pos) ;
 80015ca:	0e64      	lsrs	r4, r4, #25
    switch (pllsource)
 80015cc:	079b      	lsls	r3, r3, #30
 80015ce:	d00d      	beq.n	80015ec <HAL_RCC_GetSysClockFreq+0x80>
        pllvco = (HSI_VALUE / pllm) * ((RCC->PLLCFGR & RCC_PLLCFGR_PLLN) >> RCC_PLLCFGR_PLLN_Pos) ;
 80015d0:	480a      	ldr	r0, [pc, #40]	@ (80015fc <HAL_RCC_GetSysClockFreq+0x90>)
 80015d2:	f7fe fd95 	bl	8000100 <__udivsi3>
 80015d6:	4360      	muls	r0, r4
    pllr = (((RCC->PLLCFGR & RCC_PLLCFGR_PLLR) >> RCC_PLLCFGR_PLLR_Pos) + 1U);
 80015d8:	4b07      	ldr	r3, [pc, #28]	@ (80015f8 <HAL_RCC_GetSysClockFreq+0x8c>)
 80015da:	68d9      	ldr	r1, [r3, #12]
 80015dc:	0f49      	lsrs	r1, r1, #29
 80015de:	3101      	adds	r1, #1
    sysclockfreq = pllvco / pllr;
 80015e0:	f7fe fd8e 	bl	8000100 <__udivsi3>
  return sysclockfreq;
 80015e4:	e7cd      	b.n	8001582 <HAL_RCC_GetSysClockFreq+0x16>
    sysclockfreq = LSE_VALUE;
 80015e6:	2080      	movs	r0, #128	@ 0x80
 80015e8:	0200      	lsls	r0, r0, #8
 80015ea:	e7ca      	b.n	8001582 <HAL_RCC_GetSysClockFreq+0x16>
        pllvco = (HSE_VALUE / pllm) * ((RCC->PLLCFGR & RCC_PLLCFGR_PLLN) >> RCC_PLLCFGR_PLLN_Pos);
 80015ec:	4805      	ldr	r0, [pc, #20]	@ (8001604 <HAL_RCC_GetSysClockFreq+0x98>)
 80015ee:	f7fe fd87 	bl	8000100 <__udivsi3>
 80015f2:	4360      	muls	r0, r4
        break;
 80015f4:	e7f0      	b.n	80015d8 <HAL_RCC_GetSysClockFreq+0x6c>
 80015f6:	46c0      	nop			@ (mov r8, r8)
 80015f8:	40021000 	.word	0x40021000
 80015fc:	00f42400 	.word	0x00f42400
 8001600:	ffff8300 	.word	0xffff8300
 8001604:	007a1200 	.word	0x007a1200

08001608 <HAL_RCC_ClockConfig>:
{
 8001608:	b5f8      	push	{r3, r4, r5, r6, r7, lr}
 800160a:	46ce      	mov	lr, r9
 800160c:	4647      	mov	r7, r8
 800160e:	0005      	movs	r5, r0
 8001610:	000c      	movs	r4, r1
 8001612:	b580      	push	{r7, lr}
  if (RCC_ClkInitStruct == NULL)
 8001614:	2800      	cmp	r0, #0
 8001616:	d026      	beq.n	8001666 <HAL_RCC_ClockConfig+0x5e>
  if (FLatency > __HAL_FLASH_GET_LATENCY())
 8001618:	2207      	movs	r2, #7
 800161a:	4e57      	ldr	r6, [pc, #348]	@ (8001778 <HAL_RCC_ClockConfig+0x170>)
 800161c:	6833      	ldr	r3, [r6, #0]
 800161e:	4013      	ands	r3, r2
 8001620:	428b      	cmp	r3, r1
 8001622:	d35e      	bcc.n	80016e2 <HAL_RCC_ClockConfig+0xda>
  if (((RCC_ClkInitStruct->ClockType) & RCC_CLOCKTYPE_HCLK) == RCC_CLOCKTYPE_HCLK)
 8001624:	682b      	ldr	r3, [r5, #0]
 8001626:	079a      	lsls	r2, r3, #30
 8001628:	d50e      	bpl.n	8001648 <HAL_RCC_ClockConfig+0x40>
    if (((RCC_ClkInitStruct->ClockType) & RCC_CLOCKTYPE_PCLK1) == RCC_CLOCKTYPE_PCLK1)
 800162a:	075a      	lsls	r2, r3, #29
 800162c:	d505      	bpl.n	800163a <HAL_RCC_ClockConfig+0x32>
      MODIFY_REG(RCC->CFGR, RCC_CFGR_PPRE, RCC_HCLK_DIV16);
 800162e:	22e0      	movs	r2, #224	@ 0xe0
 8001630:	4952      	ldr	r1, [pc, #328]	@ (800177c <HAL_RCC_ClockConfig+0x174>)
 8001632:	01d2      	lsls	r2, r2, #7
 8001634:	6888      	ldr	r0, [r1, #8]
 8001636:	4302      	orrs	r2, r0
 8001638:	608a      	str	r2, [r1, #8]
    MODIFY_REG(RCC->CFGR, RCC_CFGR_HPRE, RCC_ClkInitStruct->AHBCLKDivider);
 800163a:	4950      	ldr	r1, [pc, #320]	@ (800177c <HAL_RCC_ClockConfig+0x174>)
 800163c:	4850      	ldr	r0, [pc, #320]	@ (8001780 <HAL_RCC_ClockConfig+0x178>)
 800163e:	688a      	ldr	r2, [r1, #8]
 8001640:	4002      	ands	r2, r0
 8001642:	68a8      	ldr	r0, [r5, #8]
 8001644:	4302      	orrs	r2, r0
 8001646:	608a      	str	r2, [r1, #8]
  if (((RCC_ClkInitStruct->ClockType) & RCC_CLOCKTYPE_SYSCLK) == RCC_CLOCKTYPE_SYSCLK)
 8001648:	07db      	lsls	r3, r3, #31
 800164a:	d52b      	bpl.n	80016a4 <HAL_RCC_ClockConfig+0x9c>
    if (RCC_ClkInitStruct->SYSCLKSource == RCC_SYSCLKSOURCE_HSE)
 800164c:	686b      	ldr	r3, [r5, #4]
      if (READ_BIT(RCC->CR, RCC_CR_HSERDY) == 0U)
 800164e:	4a4b      	ldr	r2, [pc, #300]	@ (800177c <HAL_RCC_ClockConfig+0x174>)
    if (RCC_ClkInitStruct->SYSCLKSource == RCC_SYSCLKSOURCE_HSE)
 8001650:	2b01      	cmp	r3, #1
 8001652:	d100      	bne.n	8001656 <HAL_RCC_ClockConfig+0x4e>
 8001654:	e07c      	b.n	8001750 <HAL_RCC_ClockConfig+0x148>
    else if (RCC_ClkInitStruct->SYSCLKSource == RCC_SYSCLKSOURCE_PLLCLK)
 8001656:	2b02      	cmp	r3, #2
 8001658:	d007      	beq.n	800166a <HAL_RCC_ClockConfig+0x62>
    else if (RCC_ClkInitStruct->SYSCLKSource == RCC_SYSCLKSOURCE_HSI)
 800165a:	2b00      	cmp	r3, #0
 800165c:	d000      	beq.n	8001660 <HAL_RCC_ClockConfig+0x58>
 800165e:	e07d      	b.n	800175c <HAL_RCC_ClockConfig+0x154>
      if (READ_BIT(RCC->CR, RCC_CR_HSIRDY) == 0U)
 8001660:	6812      	ldr	r2, [r2, #0]
 8001662:	0552      	lsls	r2, r2, #21
 8001664:	d404      	bmi.n	8001670 <HAL_RCC_ClockConfig+0x68>
    return HAL_ERROR;
 8001666:	2001      	movs	r0, #1
 8001668:	e037      	b.n	80016da <HAL_RCC_ClockConfig+0xd2>
      if (READ_BIT(RCC->CR, RCC_CR_PLLRDY) == 0U)
 800166a:	6812      	ldr	r2, [r2, #0]
 800166c:	0192      	lsls	r2, r2, #6
 800166e:	d5fa      	bpl.n	8001666 <HAL_RCC_ClockConfig+0x5e>
    MODIFY_REG(RCC->CFGR, RCC_CFGR_SW, RCC_ClkInitStruct->SYSCLKSource);
 8001670:	2107      	movs	r1, #7
 8001672:	4e42      	ldr	r6, [pc, #264]	@ (800177c <HAL_RCC_ClockConfig+0x174>)
 8001674:	68b2      	ldr	r2, [r6, #8]
 8001676:	438a      	bics	r2, r1
 8001678:	4313      	orrs	r3, r2
 800167a:	60b3      	str	r3, [r6, #8]
    tickstart = HAL_GetTick();
 800167c:	f7ff fb94 	bl	8000da8 <HAL_GetTick>
    while (__HAL_RCC_GET_SYSCLK_SOURCE() != (RCC_ClkInitStruct->SYSCLKSource << RCC_CFGR_SWS_Pos))
 8001680:	2338      	movs	r3, #56	@ 0x38
 8001682:	4698      	mov	r8, r3
      if ((HAL_GetTick() - tickstart) > CLOCKSWITCH_TIMEOUT_VALUE)
 8001684:	4b3f      	ldr	r3, [pc, #252]	@ (8001784 <HAL_RCC_ClockConfig+0x17c>)
    tickstart = HAL_GetTick();
 8001686:	0007      	movs	r7, r0
      if ((HAL_GetTick() - tickstart) > CLOCKSWITCH_TIMEOUT_VALUE)
 8001688:	4699      	mov	r9, r3
    while (__HAL_RCC_GET_SYSCLK_SOURCE() != (RCC_ClkInitStruct->SYSCLKSource << RCC_CFGR_SWS_Pos))
 800168a:	e004      	b.n	8001696 <HAL_RCC_ClockConfig+0x8e>
      if ((HAL_GetTick() - tickstart) > CLOCKSWITCH_TIMEOUT_VALUE)
 800168c:	f7ff fb8c 	bl	8000da8 <HAL_GetTick>
 8001690:	1bc0      	subs	r0, r0, r7
 8001692:	4548      	cmp	r0, r9
 8001694:	d83b      	bhi.n	800170e <HAL_RCC_ClockConfig+0x106>
    while (__HAL_RCC_GET_SYSCLK_SOURCE() != (RCC_ClkInitStruct->SYSCLKSource << RCC_CFGR_SWS_Pos))
 8001696:	4643      	mov	r3, r8
 8001698:	68b2      	ldr	r2, [r6, #8]
 800169a:	401a      	ands	r2, r3
 800169c:	686b      	ldr	r3, [r5, #4]
 800169e:	00db      	lsls	r3, r3, #3
 80016a0:	429a      	cmp	r2, r3
 80016a2:	d1f3      	bne.n	800168c <HAL_RCC_ClockConfig+0x84>
  if (FLatency < __HAL_FLASH_GET_LATENCY())
 80016a4:	2207      	movs	r2, #7
 80016a6:	4e34      	ldr	r6, [pc, #208]	@ (8001778 <HAL_RCC_ClockConfig+0x170>)
 80016a8:	6833      	ldr	r3, [r6, #0]
 80016aa:	4013      	ands	r3, r2
 80016ac:	42a3      	cmp	r3, r4
 80016ae:	d838      	bhi.n	8001722 <HAL_RCC_ClockConfig+0x11a>
  if (((RCC_ClkInitStruct->ClockType) & RCC_CLOCKTYPE_PCLK1) == RCC_CLOCKTYPE_PCLK1)
 80016b0:	682b      	ldr	r3, [r5, #0]
 80016b2:	075b      	lsls	r3, r3, #29
 80016b4:	d42d      	bmi.n	8001712 <HAL_RCC_ClockConfig+0x10a>
  SystemCoreClock = (HAL_RCC_GetSysClockFreq() >> ((AHBPrescTable[(RCC->CFGR & RCC_CFGR_HPRE) >> RCC_CFGR_HPRE_Pos]) & 0x1FU));
 80016b6:	f7ff ff59 	bl	800156c <HAL_RCC_GetSysClockFreq>
 80016ba:	4b30      	ldr	r3, [pc, #192]	@ (800177c <HAL_RCC_ClockConfig+0x174>)
 80016bc:	4a32      	ldr	r2, [pc, #200]	@ (8001788 <HAL_RCC_ClockConfig+0x180>)
 80016be:	689b      	ldr	r3, [r3, #8]
 80016c0:	4932      	ldr	r1, [pc, #200]	@ (800178c <HAL_RCC_ClockConfig+0x184>)
 80016c2:	051b      	lsls	r3, r3, #20
 80016c4:	0f1b      	lsrs	r3, r3, #28
 80016c6:	009b      	lsls	r3, r3, #2
 80016c8:	589b      	ldr	r3, [r3, r2]
 80016ca:	221f      	movs	r2, #31
 80016cc:	4013      	ands	r3, r2
 80016ce:	40d8      	lsrs	r0, r3
  return HAL_InitTick(uwTickPrio);
 80016d0:	4b2f      	ldr	r3, [pc, #188]	@ (8001790 <HAL_RCC_ClockConfig+0x188>)
  SystemCoreClock = (HAL_RCC_GetSysClockFreq() >> ((AHBPrescTable[(RCC->CFGR & RCC_CFGR_HPRE) >> RCC_CFGR_HPRE_Pos]) & 0x1FU));
 80016d2:	6008      	str	r0, [r1, #0]
  return HAL_InitTick(uwTickPrio);
 80016d4:	6818      	ldr	r0, [r3, #0]
 80016d6:	f7ff fb21 	bl	8000d1c <HAL_InitTick>
}
 80016da:	bcc0      	pop	{r6, r7}
 80016dc:	46b9      	mov	r9, r7
 80016de:	46b0      	mov	r8, r6
 80016e0:	bdf8      	pop	{r3, r4, r5, r6, r7, pc}
    __HAL_FLASH_SET_LATENCY(FLatency);
 80016e2:	6833      	ldr	r3, [r6, #0]
 80016e4:	4393      	bics	r3, r2
 80016e6:	430b      	orrs	r3, r1
 80016e8:	6033      	str	r3, [r6, #0]
    tickstart = HAL_GetTick();
 80016ea:	f7ff fb5d 	bl	8000da8 <HAL_GetTick>
    while ((FLASH->ACR & FLASH_ACR_LATENCY) != FLatency)
 80016ee:	2307      	movs	r3, #7
 80016f0:	4698      	mov	r8, r3
      if ((HAL_GetTick() - tickstart) > CLOCKSWITCH_TIMEOUT_VALUE)
 80016f2:	4b24      	ldr	r3, [pc, #144]	@ (8001784 <HAL_RCC_ClockConfig+0x17c>)
    tickstart = HAL_GetTick();
 80016f4:	0007      	movs	r7, r0
      if ((HAL_GetTick() - tickstart) > CLOCKSWITCH_TIMEOUT_VALUE)
 80016f6:	4699      	mov	r9, r3
    while ((FLASH->ACR & FLASH_ACR_LATENCY) != FLatency)
 80016f8:	4642      	mov	r2, r8
 80016fa:	6833      	ldr	r3, [r6, #0]
 80016fc:	4013      	ands	r3, r2
 80016fe:	42a3      	cmp	r3, r4
 8001700:	d100      	bne.n	8001704 <HAL_RCC_ClockConfig+0xfc>
 8001702:	e78f      	b.n	8001624 <HAL_RCC_ClockConfig+0x1c>
      if ((HAL_GetTick() - tickstart) > CLOCKSWITCH_TIMEOUT_VALUE)
 8001704:	f7ff fb50 	bl	8000da8 <HAL_GetTick>
 8001708:	1bc0      	subs	r0, r0, r7
 800170a:	4548      	cmp	r0, r9
 800170c:	d9f4      	bls.n	80016f8 <HAL_RCC_ClockConfig+0xf0>
        return HAL_TIMEOUT;
 800170e:	2003      	movs	r0, #3
 8001710:	e7e3      	b.n	80016da <HAL_RCC_ClockConfig+0xd2>
    MODIFY_REG(RCC->CFGR, RCC_CFGR_PPRE, RCC_ClkInitStruct->APB1CLKDivider);
 8001712:	4a1a      	ldr	r2, [pc, #104]	@ (800177c <HAL_RCC_ClockConfig+0x174>)
 8001714:	491f      	ldr	r1, [pc, #124]	@ (8001794 <HAL_RCC_ClockConfig+0x18c>)
 8001716:	6893      	ldr	r3, [r2, #8]
 8001718:	400b      	ands	r3, r1
 800171a:	68e9      	ldr	r1, [r5, #12]
 800171c:	430b      	orrs	r3, r1
 800171e:	6093      	str	r3, [r2, #8]
 8001720:	e7c9      	b.n	80016b6 <HAL_RCC_ClockConfig+0xae>
    __HAL_FLASH_SET_LATENCY(FLatency);
 8001722:	6833      	ldr	r3, [r6, #0]
 8001724:	4393      	bics	r3, r2
 8001726:	4323      	orrs	r3, r4
 8001728:	6033      	str	r3, [r6, #0]
    tickstart = HAL_GetTick();
 800172a:	f7ff fb3d 	bl	8000da8 <HAL_GetTick>
    while ((FLASH->ACR & FLASH_ACR_LATENCY) != FLatency)
 800172e:	2307      	movs	r3, #7
 8001730:	4698      	mov	r8, r3
      if ((HAL_GetTick() - tickstart) > CLOCKSWITCH_TIMEOUT_VALUE)
 8001732:	4b14      	ldr	r3, [pc, #80]	@ (8001784 <HAL_RCC_ClockConfig+0x17c>)
    tickstart = HAL_GetTick();
 8001734:	0007      	movs	r7, r0
      if ((HAL_GetTick() - tickstart) > CLOCKSWITCH_TIMEOUT_VALUE)
 8001736:	4699      	mov	r9, r3
    while ((FLASH->ACR & FLASH_ACR_LATENCY) != FLatency)
 8001738:	4642      	mov	r2, r8
 800173a:	6833      	ldr	r3, [r6, #0]
 800173c:	4013      	ands	r3, r2
 800173e:	42a3      	cmp	r3, r4
 8001740:	d0b6      	beq.n	80016b0 <HAL_RCC_ClockConfig+0xa8>
      if ((HAL_GetTick() - tickstart) > CLOCKSWITCH_TIMEOUT_VALUE)
 8001742:	f7ff fb31 	bl	8000da8 <HAL_GetTick>
 8001746:	1bc0      	subs	r0, r0, r7
 8001748:	4548      	cmp	r0, r9
 800174a:	d9f5      	bls.n	8001738 <HAL_RCC_ClockConfig+0x130>
        return HAL_TIMEOUT;
 800174c:	2003      	movs	r0, #3
 800174e:	e7c4      	b.n	80016da <HAL_RCC_ClockConfig+0xd2>
      if (READ_BIT(RCC->CR, RCC_CR_HSERDY) == 0U)
 8001750:	6812      	ldr	r2, [r2, #0]
 8001752:	0392      	lsls	r2, r2, #14
 8001754:	d500      	bpl.n	8001758 <HAL_RCC_ClockConfig+0x150>
 8001756:	e78b      	b.n	8001670 <HAL_RCC_ClockConfig+0x68>
    return HAL_ERROR;
 8001758:	2001      	movs	r0, #1
 800175a:	e7be      	b.n	80016da <HAL_RCC_ClockConfig+0xd2>
    else if (RCC_ClkInitStruct->SYSCLKSource == RCC_SYSCLKSOURCE_LSI)
 800175c:	2b03      	cmp	r3, #3
 800175e:	d005      	beq.n	800176c <HAL_RCC_ClockConfig+0x164>
      if (READ_BIT(RCC->BDCR, RCC_BDCR_LSERDY) == 0U)
 8001760:	6dd2      	ldr	r2, [r2, #92]	@ 0x5c
 8001762:	0792      	lsls	r2, r2, #30
 8001764:	d500      	bpl.n	8001768 <HAL_RCC_ClockConfig+0x160>
 8001766:	e783      	b.n	8001670 <HAL_RCC_ClockConfig+0x68>
    return HAL_ERROR;
 8001768:	2001      	movs	r0, #1
 800176a:	e7b6      	b.n	80016da <HAL_RCC_ClockConfig+0xd2>
      if (READ_BIT(RCC->CSR, RCC_CSR_LSIRDY) == 0U)
 800176c:	6e12      	ldr	r2, [r2, #96]	@ 0x60
 800176e:	0792      	lsls	r2, r2, #30
 8001770:	d500      	bpl.n	8001774 <HAL_RCC_ClockConfig+0x16c>
 8001772:	e77d      	b.n	8001670 <HAL_RCC_ClockConfig+0x68>
    return HAL_ERROR;
 8001774:	2001      	movs	r0, #1
 8001776:	e7b0      	b.n	80016da <HAL_RCC_ClockConfig+0xd2>
 8001778:	40022000 	.word	0x40022000
 800177c:	40021000 	.word	0x40021000
 8001780:	fffff0ff 	.word	0xfffff0ff
 8001784:	00001388 	.word	0x00001388
 8001788:	08003024 	.word	0x08003024
 800178c:	20000668 	.word	0x20000668
 8001790:	20000670 	.word	0x20000670
 8001794:	ffff8fff 	.word	0xffff8fff

08001798 <HAL_RCC_GetPCLK1Freq>:
  *         @arg @ref LL_RCC_APB1_DIV_8
  *         @arg @ref LL_RCC_APB1_DIV_16
  */
__STATIC_INLINE uint32_t LL_RCC_GetAPB1Prescaler(void)
{
  return (uint32_t)(READ_BIT(RCC->CFGR, RCC_CFGR_PPRE));
 8001798:	4b06      	ldr	r3, [pc, #24]	@ (80017b4 <HAL_RCC_GetPCLK1Freq+0x1c>)
  * @retval PCLK1 frequency in Hz
  */
uint32_t HAL_RCC_GetPCLK1Freq(void)
{
  /* Get HCLK source and Compute PCLK1 frequency ---------------------------*/
  return ((uint32_t)(__LL_RCC_CALC_PCLK1_FREQ(HAL_RCC_GetHCLKFreq(), LL_RCC_GetAPB1Prescaler())));
 800179a:	4907      	ldr	r1, [pc, #28]	@ (80017b8 <HAL_RCC_GetPCLK1Freq+0x20>)
 800179c:	689b      	ldr	r3, [r3, #8]
  return SystemCoreClock;
 800179e:	4a07      	ldr	r2, [pc, #28]	@ (80017bc <HAL_RCC_GetPCLK1Freq+0x24>)
  return ((uint32_t)(__LL_RCC_CALC_PCLK1_FREQ(HAL_RCC_GetHCLKFreq(), LL_RCC_GetAPB1Prescaler())));
 80017a0:	045b      	lsls	r3, r3, #17
 80017a2:	0f5b      	lsrs	r3, r3, #29
 80017a4:	009b      	lsls	r3, r3, #2
 80017a6:	585b      	ldr	r3, [r3, r1]
 80017a8:	211f      	movs	r1, #31
 80017aa:	6810      	ldr	r0, [r2, #0]
 80017ac:	400b      	ands	r3, r1
 80017ae:	40d8      	lsrs	r0, r3
}
 80017b0:	4770      	bx	lr
 80017b2:	46c0      	nop			@ (mov r8, r8)
 80017b4:	40021000 	.word	0x40021000
 80017b8:	08003004 	.word	0x08003004
 80017bc:	20000668 	.word	0x20000668

080017c0 <HAL_RCCEx_PeriphCLKConfig>:
  *         the RTC clock source: in this case the access to Backup domain is enabled.
  *
  * @retval HAL status
  */
HAL_StatusTypeDef HAL_RCCEx_PeriphCLKConfig(RCC_PeriphCLKInitTypeDef  *PeriphClkInit)
{
 80017c0:	b5f0      	push	{r4, r5, r6, r7, lr}
 80017c2:	46d6      	mov	lr, sl
 80017c4:	464f      	mov	r7, r9
 80017c6:	4646      	mov	r6, r8
 80017c8:	b5c0      	push	{r6, r7, lr}

  /* Check the parameters */
  assert_param(IS_RCC_PERIPHCLOCK(PeriphClkInit->PeriphClockSelection));

  /*-------------------------- RTC clock source configuration ----------------------*/
  if ((PeriphClkInit->PeriphClockSelection & RCC_PERIPHCLK_RTC) == RCC_PERIPHCLK_RTC)
 80017ca:	6803      	ldr	r3, [r0, #0]
{
 80017cc:	0004      	movs	r4, r0
 80017ce:	b082      	sub	sp, #8
  HAL_StatusTypeDef status = HAL_OK;   /* Final status */
 80017d0:	2000      	movs	r0, #0
  if ((PeriphClkInit->PeriphClockSelection & RCC_PERIPHCLK_RTC) == RCC_PERIPHCLK_RTC)
 80017d2:	039a      	lsls	r2, r3, #14
 80017d4:	d551      	bpl.n	800187a <HAL_RCCEx_PeriphCLKConfig+0xba>

    /* Check for RTC Parameters used to output RTCCLK */
    assert_param(IS_RCC_RTCCLKSOURCE(PeriphClkInit->RTCClockSelection));

    /* Enable Power Clock */
    if (__HAL_RCC_PWR_IS_CLK_DISABLED())
 80017d6:	2280      	movs	r2, #128	@ 0x80
 80017d8:	4b51      	ldr	r3, [pc, #324]	@ (8001920 <HAL_RCCEx_PeriphCLKConfig+0x160>)
 80017da:	0552      	lsls	r2, r2, #21
 80017dc:	6bd9      	ldr	r1, [r3, #60]	@ 0x3c
    FlagStatus       pwrclkchanged = RESET;
 80017de:	4682      	mov	sl, r0
    if (__HAL_RCC_PWR_IS_CLK_DISABLED())
 80017e0:	4211      	tst	r1, r2
 80017e2:	d100      	bne.n	80017e6 <HAL_RCCEx_PeriphCLKConfig+0x26>
 80017e4:	e07b      	b.n	80018de <HAL_RCCEx_PeriphCLKConfig+0x11e>
      __HAL_RCC_PWR_CLK_ENABLE();
      pwrclkchanged = SET;
    }

    /* Enable write access to Backup domain */
    SET_BIT(PWR->CR1, PWR_CR1_DBP);
 80017e6:	2780      	movs	r7, #128	@ 0x80
 80017e8:	4d4e      	ldr	r5, [pc, #312]	@ (8001924 <HAL_RCCEx_PeriphCLKConfig+0x164>)
 80017ea:	007f      	lsls	r7, r7, #1
 80017ec:	682b      	ldr	r3, [r5, #0]
 80017ee:	433b      	orrs	r3, r7
 80017f0:	602b      	str	r3, [r5, #0]

    /* Wait for Backup domain Write protection disable */
    tickstart = HAL_GetTick();
 80017f2:	f7ff fad9 	bl	8000da8 <HAL_GetTick>
 80017f6:	0006      	movs	r6, r0

    while ((PWR->CR1 & PWR_CR1_DBP) == 0U)
 80017f8:	e005      	b.n	8001806 <HAL_RCCEx_PeriphCLKConfig+0x46>
    {
      if ((HAL_GetTick() - tickstart) > RCC_DBP_TIMEOUT_VALUE)
 80017fa:	f7ff fad5 	bl	8000da8 <HAL_GetTick>
 80017fe:	1b80      	subs	r0, r0, r6
 8001800:	2802      	cmp	r0, #2
 8001802:	d900      	bls.n	8001806 <HAL_RCCEx_PeriphCLKConfig+0x46>
 8001804:	e075      	b.n	80018f2 <HAL_RCCEx_PeriphCLKConfig+0x132>
    while ((PWR->CR1 & PWR_CR1_DBP) == 0U)
 8001806:	682b      	ldr	r3, [r5, #0]
 8001808:	423b      	tst	r3, r7
 800180a:	d0f6      	beq.n	80017fa <HAL_RCCEx_PeriphCLKConfig+0x3a>
    }

    if (ret == HAL_OK)
    {
      /* Reset the Backup domain only if the RTC Clock source selection is modified from default */
      tmpregister = READ_BIT(RCC->BDCR, RCC_BDCR_RTCSEL);
 800180c:	4d44      	ldr	r5, [pc, #272]	@ (8001920 <HAL_RCCEx_PeriphCLKConfig+0x160>)
 800180e:	23c0      	movs	r3, #192	@ 0xc0
 8001810:	6dea      	ldr	r2, [r5, #92]	@ 0x5c
 8001812:	009b      	lsls	r3, r3, #2
 8001814:	0010      	movs	r0, r2

      /* Reset the Backup domain only if the RTC Clock source selection is modified */
      if ((tmpregister != RCC_RTCCLKSOURCE_NONE) && (tmpregister != PeriphClkInit->RTCClockSelection))
 8001816:	6961      	ldr	r1, [r4, #20]
      tmpregister = READ_BIT(RCC->BDCR, RCC_BDCR_RTCSEL);
 8001818:	4018      	ands	r0, r3
      if ((tmpregister != RCC_RTCCLKSOURCE_NONE) && (tmpregister != PeriphClkInit->RTCClockSelection))
 800181a:	421a      	tst	r2, r3
 800181c:	d022      	beq.n	8001864 <HAL_RCCEx_PeriphCLKConfig+0xa4>
 800181e:	4288      	cmp	r0, r1
 8001820:	d020      	beq.n	8001864 <HAL_RCCEx_PeriphCLKConfig+0xa4>
      {
        /* Store the content of BDCR register before the reset of Backup Domain */
        tmpregister = READ_BIT(RCC->BDCR, ~(RCC_BDCR_RTCSEL));
        /* RTC Clock selection can be changed only if the Backup Domain is reset */
        __HAL_RCC_BACKUPRESET_FORCE();
 8001822:	2080      	movs	r0, #128	@ 0x80
        tmpregister = READ_BIT(RCC->BDCR, ~(RCC_BDCR_RTCSEL));
 8001824:	6deb      	ldr	r3, [r5, #92]	@ 0x5c
        __HAL_RCC_BACKUPRESET_FORCE();
 8001826:	6dee      	ldr	r6, [r5, #92]	@ 0x5c
 8001828:	0240      	lsls	r0, r0, #9
 800182a:	4330      	orrs	r0, r6
 800182c:	65e8      	str	r0, [r5, #92]	@ 0x5c
        __HAL_RCC_BACKUPRESET_RELEASE();
 800182e:	6de8      	ldr	r0, [r5, #92]	@ 0x5c
        tmpregister = READ_BIT(RCC->BDCR, ~(RCC_BDCR_RTCSEL));
 8001830:	4a3d      	ldr	r2, [pc, #244]	@ (8001928 <HAL_RCCEx_PeriphCLKConfig+0x168>)
        __HAL_RCC_BACKUPRESET_RELEASE();
 8001832:	4e3e      	ldr	r6, [pc, #248]	@ (800192c <HAL_RCCEx_PeriphCLKConfig+0x16c>)
        tmpregister = READ_BIT(RCC->BDCR, ~(RCC_BDCR_RTCSEL));
 8001834:	401a      	ands	r2, r3
        __HAL_RCC_BACKUPRESET_RELEASE();
 8001836:	4030      	ands	r0, r6
 8001838:	65e8      	str	r0, [r5, #92]	@ 0x5c
        /* Restore the Content of BDCR register */
        RCC->BDCR = tmpregister;
 800183a:	65ea      	str	r2, [r5, #92]	@ 0x5c
      }

      /* Wait for LSE reactivation if LSE was enable prior to Backup Domain reset */
      if (HAL_IS_BIT_SET(tmpregister, RCC_BDCR_LSEON))
 800183c:	07db      	lsls	r3, r3, #31
 800183e:	d511      	bpl.n	8001864 <HAL_RCCEx_PeriphCLKConfig+0xa4>
      {
        /* Get Start Tick*/
        tickstart = HAL_GetTick();
 8001840:	f7ff fab2 	bl	8000da8 <HAL_GetTick>

        /* Wait till LSE is ready */
        while (READ_BIT(RCC->BDCR, RCC_BDCR_LSERDY) == 0U)
 8001844:	2302      	movs	r3, #2
 8001846:	4698      	mov	r8, r3
        {
          if ((HAL_GetTick() - tickstart) > RCC_LSE_TIMEOUT_VALUE)
 8001848:	4b39      	ldr	r3, [pc, #228]	@ (8001930 <HAL_RCCEx_PeriphCLKConfig+0x170>)
        tickstart = HAL_GetTick();
 800184a:	0006      	movs	r6, r0
          if ((HAL_GetTick() - tickstart) > RCC_LSE_TIMEOUT_VALUE)
 800184c:	4699      	mov	r9, r3
        while (READ_BIT(RCC->BDCR, RCC_BDCR_LSERDY) == 0U)
 800184e:	e004      	b.n	800185a <HAL_RCCEx_PeriphCLKConfig+0x9a>
          if ((HAL_GetTick() - tickstart) > RCC_LSE_TIMEOUT_VALUE)
 8001850:	f7ff faaa 	bl	8000da8 <HAL_GetTick>
 8001854:	1b80      	subs	r0, r0, r6
 8001856:	4548      	cmp	r0, r9
 8001858:	d84b      	bhi.n	80018f2 <HAL_RCCEx_PeriphCLKConfig+0x132>
        while (READ_BIT(RCC->BDCR, RCC_BDCR_LSERDY) == 0U)
 800185a:	4642      	mov	r2, r8
 800185c:	6deb      	ldr	r3, [r5, #92]	@ 0x5c
 800185e:	421a      	tst	r2, r3
 8001860:	d0f6      	beq.n	8001850 <HAL_RCCEx_PeriphCLKConfig+0x90>
      }

      if (ret == HAL_OK)
      {
        /* Apply new RTC clock source selection */
        __HAL_RCC_RTC_CONFIG(PeriphClkInit->RTCClockSelection);
 8001862:	6961      	ldr	r1, [r4, #20]
 8001864:	4a2e      	ldr	r2, [pc, #184]	@ (8001920 <HAL_RCCEx_PeriphCLKConfig+0x160>)
 8001866:	4830      	ldr	r0, [pc, #192]	@ (8001928 <HAL_RCCEx_PeriphCLKConfig+0x168>)
 8001868:	6dd3      	ldr	r3, [r2, #92]	@ 0x5c
 800186a:	4003      	ands	r3, r0
 800186c:	430b      	orrs	r3, r1
 800186e:	65d3      	str	r3, [r2, #92]	@ 0x5c
      /* set overall return value */
      status = ret;
    }

    /* Restore clock configuration if changed */
    if (pwrclkchanged == SET)
 8001870:	4652      	mov	r2, sl
  HAL_StatusTypeDef status = HAL_OK;   /* Final status */
 8001872:	2000      	movs	r0, #0
      __HAL_RCC_PWR_CLK_DISABLE();
    }
  }

  /*-------------------------- USART1 clock source configuration -------------------*/
  if (((PeriphClkInit->PeriphClockSelection) & RCC_PERIPHCLK_USART1) == RCC_PERIPHCLK_USART1)
 8001874:	6823      	ldr	r3, [r4, #0]
    if (pwrclkchanged == SET)
 8001876:	2a01      	cmp	r2, #1
 8001878:	d040      	beq.n	80018fc <HAL_RCCEx_PeriphCLKConfig+0x13c>
  if (((PeriphClkInit->PeriphClockSelection) & RCC_PERIPHCLK_USART1) == RCC_PERIPHCLK_USART1)
 800187a:	07da      	lsls	r2, r3, #31
 800187c:	d506      	bpl.n	800188c <HAL_RCCEx_PeriphCLKConfig+0xcc>
  {
    /* Check the parameters */
    assert_param(IS_RCC_USART1CLKSOURCE(PeriphClkInit->Usart1ClockSelection));

    /* Configure the USART1 clock source */
    __HAL_RCC_USART1_CONFIG(PeriphClkInit->Usart1ClockSelection);
 800187e:	2503      	movs	r5, #3
 8001880:	4927      	ldr	r1, [pc, #156]	@ (8001920 <HAL_RCCEx_PeriphCLKConfig+0x160>)
 8001882:	6d4a      	ldr	r2, [r1, #84]	@ 0x54
 8001884:	43aa      	bics	r2, r5
 8001886:	6865      	ldr	r5, [r4, #4]
 8001888:	432a      	orrs	r2, r5
 800188a:	654a      	str	r2, [r1, #84]	@ 0x54
    __HAL_RCC_LPTIM2_CONFIG(PeriphClkInit->Lptim2ClockSelection);
  }
#endif /* RCC_CCIPR_LPTIM2SEL */

  /*-------------------------- I2C1 clock source configuration ---------------------*/
  if (((PeriphClkInit->PeriphClockSelection) & RCC_PERIPHCLK_I2C1) == RCC_PERIPHCLK_I2C1)
 800188c:	069a      	lsls	r2, r3, #26
 800188e:	d506      	bpl.n	800189e <HAL_RCCEx_PeriphCLKConfig+0xde>
  {
    /* Check the parameters */
    assert_param(IS_RCC_I2C1CLKSOURCE(PeriphClkInit->I2c1ClockSelection));

    /* Configure the I2C1 clock source */
    __HAL_RCC_I2C1_CONFIG(PeriphClkInit->I2c1ClockSelection);
 8001890:	4923      	ldr	r1, [pc, #140]	@ (8001920 <HAL_RCCEx_PeriphCLKConfig+0x160>)
 8001892:	4d28      	ldr	r5, [pc, #160]	@ (8001934 <HAL_RCCEx_PeriphCLKConfig+0x174>)
 8001894:	6d4a      	ldr	r2, [r1, #84]	@ 0x54
 8001896:	402a      	ands	r2, r5
 8001898:	68a5      	ldr	r5, [r4, #8]
 800189a:	432a      	orrs	r2, r5
 800189c:	654a      	str	r2, [r1, #84]	@ 0x54
      __HAL_RCC_PLLCLKOUT_ENABLE(RCC_PLLQCLK);
    }
  }
#endif /* RNG */
  /*-------------------------- ADC clock source configuration ----------------------*/
  if (((PeriphClkInit->PeriphClockSelection) & RCC_PERIPHCLK_ADC) == RCC_PERIPHCLK_ADC)
 800189e:	045a      	lsls	r2, r3, #17
 80018a0:	d50a      	bpl.n	80018b8 <HAL_RCCEx_PeriphCLKConfig+0xf8>
  {
    /* Check the parameters */
    assert_param(IS_RCC_ADCCLKSOURCE(PeriphClkInit->AdcClockSelection));

    /* Configure the ADC interface clock source */
    __HAL_RCC_ADC_CONFIG(PeriphClkInit->AdcClockSelection);
 80018a2:	491f      	ldr	r1, [pc, #124]	@ (8001920 <HAL_RCCEx_PeriphCLKConfig+0x160>)
 80018a4:	6925      	ldr	r5, [r4, #16]
 80018a6:	6d4a      	ldr	r2, [r1, #84]	@ 0x54
 80018a8:	0092      	lsls	r2, r2, #2
 80018aa:	0892      	lsrs	r2, r2, #2
 80018ac:	432a      	orrs	r2, r5
 80018ae:	654a      	str	r2, [r1, #84]	@ 0x54

    if (PeriphClkInit->AdcClockSelection == RCC_ADCCLKSOURCE_PLLADC)
 80018b0:	2280      	movs	r2, #128	@ 0x80
 80018b2:	05d2      	lsls	r2, r2, #23
 80018b4:	4295      	cmp	r5, r2
 80018b6:	d027      	beq.n	8001908 <HAL_RCCEx_PeriphCLKConfig+0x148>
    }
  }
#endif /* RCC_CCIPR_TIM15SEL */

  /*-------------------------- I2S1 clock source configuration ---------------------*/
  if (((PeriphClkInit->PeriphClockSelection) & RCC_PERIPHCLK_I2S1) == RCC_PERIPHCLK_I2S1)
 80018b8:	051b      	lsls	r3, r3, #20
 80018ba:	d50a      	bpl.n	80018d2 <HAL_RCCEx_PeriphCLKConfig+0x112>
  {
    /* Check the parameters */
    assert_param(IS_RCC_I2S1CLKSOURCE(PeriphClkInit->I2s1ClockSelection));

    /* Configure the I2S1 clock source */
    __HAL_RCC_I2S1_CONFIG(PeriphClkInit->I2s1ClockSelection);
 80018bc:	4a18      	ldr	r2, [pc, #96]	@ (8001920 <HAL_RCCEx_PeriphCLKConfig+0x160>)
 80018be:	68e1      	ldr	r1, [r4, #12]
 80018c0:	6d53      	ldr	r3, [r2, #84]	@ 0x54
 80018c2:	4c1d      	ldr	r4, [pc, #116]	@ (8001938 <HAL_RCCEx_PeriphCLKConfig+0x178>)
 80018c4:	4023      	ands	r3, r4
 80018c6:	430b      	orrs	r3, r1
 80018c8:	6553      	str	r3, [r2, #84]	@ 0x54

    if (PeriphClkInit->I2s1ClockSelection == RCC_I2S1CLKSOURCE_PLL)
 80018ca:	2380      	movs	r3, #128	@ 0x80
 80018cc:	01db      	lsls	r3, r3, #7
 80018ce:	4299      	cmp	r1, r3
 80018d0:	d020      	beq.n	8001914 <HAL_RCCEx_PeriphCLKConfig+0x154>
    }
  }
#endif /* FDCAN1 || FDCAN2 */

  return status;
}
 80018d2:	b002      	add	sp, #8
 80018d4:	bce0      	pop	{r5, r6, r7}
 80018d6:	46ba      	mov	sl, r7
 80018d8:	46b1      	mov	r9, r6
 80018da:	46a8      	mov	r8, r5
 80018dc:	bdf0      	pop	{r4, r5, r6, r7, pc}
      __HAL_RCC_PWR_CLK_ENABLE();
 80018de:	6bd9      	ldr	r1, [r3, #60]	@ 0x3c
 80018e0:	4311      	orrs	r1, r2
 80018e2:	63d9      	str	r1, [r3, #60]	@ 0x3c
 80018e4:	6bdb      	ldr	r3, [r3, #60]	@ 0x3c
 80018e6:	4013      	ands	r3, r2
 80018e8:	9301      	str	r3, [sp, #4]
 80018ea:	9b01      	ldr	r3, [sp, #4]
      pwrclkchanged = SET;
 80018ec:	2301      	movs	r3, #1
 80018ee:	469a      	mov	sl, r3
 80018f0:	e779      	b.n	80017e6 <HAL_RCCEx_PeriphCLKConfig+0x26>
    if (pwrclkchanged == SET)
 80018f2:	4652      	mov	r2, sl
        status = ret;
 80018f4:	2003      	movs	r0, #3
  if (((PeriphClkInit->PeriphClockSelection) & RCC_PERIPHCLK_USART1) == RCC_PERIPHCLK_USART1)
 80018f6:	6823      	ldr	r3, [r4, #0]
    if (pwrclkchanged == SET)
 80018f8:	2a01      	cmp	r2, #1
 80018fa:	d1be      	bne.n	800187a <HAL_RCCEx_PeriphCLKConfig+0xba>
      __HAL_RCC_PWR_CLK_DISABLE();
 80018fc:	4908      	ldr	r1, [pc, #32]	@ (8001920 <HAL_RCCEx_PeriphCLKConfig+0x160>)
 80018fe:	4d0f      	ldr	r5, [pc, #60]	@ (800193c <HAL_RCCEx_PeriphCLKConfig+0x17c>)
 8001900:	6bca      	ldr	r2, [r1, #60]	@ 0x3c
 8001902:	402a      	ands	r2, r5
 8001904:	63ca      	str	r2, [r1, #60]	@ 0x3c
 8001906:	e7b8      	b.n	800187a <HAL_RCCEx_PeriphCLKConfig+0xba>
      __HAL_RCC_PLLCLKOUT_ENABLE(RCC_PLLPCLK);
 8001908:	2280      	movs	r2, #128	@ 0x80
 800190a:	68cd      	ldr	r5, [r1, #12]
 800190c:	0252      	lsls	r2, r2, #9
 800190e:	432a      	orrs	r2, r5
 8001910:	60ca      	str	r2, [r1, #12]
 8001912:	e7d1      	b.n	80018b8 <HAL_RCCEx_PeriphCLKConfig+0xf8>
      __HAL_RCC_PLLCLKOUT_ENABLE(RCC_PLLPCLK);
 8001914:	2380      	movs	r3, #128	@ 0x80
 8001916:	68d1      	ldr	r1, [r2, #12]
 8001918:	025b      	lsls	r3, r3, #9
 800191a:	430b      	orrs	r3, r1
 800191c:	60d3      	str	r3, [r2, #12]
  return status;
 800191e:	e7d8      	b.n	80018d2 <HAL_RCCEx_PeriphCLKConfig+0x112>
 8001920:	40021000 	.word	0x40021000
 8001924:	40007000 	.word	0x40007000
 8001928:	fffffcff 	.word	0xfffffcff
 800192c:	fffeffff 	.word	0xfffeffff
 8001930:	00001388 	.word	0x00001388
 8001934:	ffffcfff 	.word	0xffffcfff
 8001938:	ffff3fff 	.word	0xffff3fff
 800193c:	efffffff 	.word	0xefffffff

08001940 <RTC_ExitInitMode>:
HAL_StatusTypeDef RTC_ExitInitMode(RTC_HandleTypeDef *hrtc)
{
  HAL_StatusTypeDef status = HAL_OK;

  /* Exit Initialization mode */
  CLEAR_BIT(RTC->ICSR, RTC_ICSR_INIT);
 8001940:	2180      	movs	r1, #128	@ 0x80
{
 8001942:	b5f8      	push	{r3, r4, r5, r6, r7, lr}
  CLEAR_BIT(RTC->ICSR, RTC_ICSR_INIT);
 8001944:	4b21      	ldr	r3, [pc, #132]	@ (80019cc <RTC_ExitInitMode+0x8c>)
{
 8001946:	0004      	movs	r4, r0
  CLEAR_BIT(RTC->ICSR, RTC_ICSR_INIT);
 8001948:	68da      	ldr	r2, [r3, #12]
 800194a:	438a      	bics	r2, r1
 800194c:	60da      	str	r2, [r3, #12]

  /* If CR_BYPSHAD bit = 0, wait for synchro */
  if (READ_BIT(RTC->CR, RTC_CR_BYPSHAD) == 0U)
 800194e:	2220      	movs	r2, #32
 8001950:	6998      	ldr	r0, [r3, #24]
  hrtc->Instance->ICSR = ((uint32_t)(RTC_RSF_MASK & RTC_ICSR_RESERVED_MASK));
 8001952:	6821      	ldr	r1, [r4, #0]
  if (READ_BIT(RTC->CR, RTC_CR_BYPSHAD) == 0U)
 8001954:	4202      	tst	r2, r0
 8001956:	d113      	bne.n	8001980 <RTC_ExitInitMode+0x40>
  hrtc->Instance->ICSR = ((uint32_t)(RTC_RSF_MASK & RTC_ICSR_RESERVED_MASK));
 8001958:	4b1d      	ldr	r3, [pc, #116]	@ (80019d0 <RTC_ExitInitMode+0x90>)
    if((HAL_GetTick() - tickstart ) > RTC_TIMEOUT_VALUE)
 800195a:	27fa      	movs	r7, #250	@ 0xfa
  hrtc->Instance->ICSR = ((uint32_t)(RTC_RSF_MASK & RTC_ICSR_RESERVED_MASK));
 800195c:	60cb      	str	r3, [r1, #12]
  tickstart = HAL_GetTick();
 800195e:	f7ff fa23 	bl	8000da8 <HAL_GetTick>
  while((hrtc->Instance->ICSR & RTC_ICSR_RSF) == 0U)
 8001962:	2620      	movs	r6, #32
  tickstart = HAL_GetTick();
 8001964:	0005      	movs	r5, r0
    if((HAL_GetTick() - tickstart ) > RTC_TIMEOUT_VALUE)
 8001966:	00bf      	lsls	r7, r7, #2
  while((hrtc->Instance->ICSR & RTC_ICSR_RSF) == 0U)
 8001968:	e004      	b.n	8001974 <RTC_ExitInitMode+0x34>
    if((HAL_GetTick() - tickstart ) > RTC_TIMEOUT_VALUE)
 800196a:	f7ff fa1d 	bl	8000da8 <HAL_GetTick>
 800196e:	1b40      	subs	r0, r0, r5
 8001970:	42b8      	cmp	r0, r7
 8001972:	d826      	bhi.n	80019c2 <RTC_ExitInitMode+0x82>
  while((hrtc->Instance->ICSR & RTC_ICSR_RSF) == 0U)
 8001974:	6823      	ldr	r3, [r4, #0]
 8001976:	68db      	ldr	r3, [r3, #12]
 8001978:	421e      	tst	r6, r3
 800197a:	d0f6      	beq.n	800196a <RTC_ExitInitMode+0x2a>
  HAL_StatusTypeDef status = HAL_OK;
 800197c:	2000      	movs	r0, #0
 800197e:	e01a      	b.n	80019b6 <RTC_ExitInitMode+0x76>
  }
  else /* WA 2.7.1 Calendar initialization may fail in case of consecutive INIT mode entry.
          Please look at STM32G0 Errata sheet on the internet for details. */
  {
    /* Clear BYPSHAD bit */
    CLEAR_BIT(RTC->CR, RTC_CR_BYPSHAD);
 8001980:	6998      	ldr	r0, [r3, #24]
    if((HAL_GetTick() - tickstart ) > RTC_TIMEOUT_VALUE)
 8001982:	27fa      	movs	r7, #250	@ 0xfa
    CLEAR_BIT(RTC->CR, RTC_CR_BYPSHAD);
 8001984:	4390      	bics	r0, r2
 8001986:	6198      	str	r0, [r3, #24]
  hrtc->Instance->ICSR = ((uint32_t)(RTC_RSF_MASK & RTC_ICSR_RESERVED_MASK));
 8001988:	4b11      	ldr	r3, [pc, #68]	@ (80019d0 <RTC_ExitInitMode+0x90>)
  while((hrtc->Instance->ICSR & RTC_ICSR_RSF) == 0U)
 800198a:	2620      	movs	r6, #32
  hrtc->Instance->ICSR = ((uint32_t)(RTC_RSF_MASK & RTC_ICSR_RESERVED_MASK));
 800198c:	60cb      	str	r3, [r1, #12]
  tickstart = HAL_GetTick();
 800198e:	f7ff fa0b 	bl	8000da8 <HAL_GetTick>
    if((HAL_GetTick() - tickstart ) > RTC_TIMEOUT_VALUE)
 8001992:	00bf      	lsls	r7, r7, #2
  tickstart = HAL_GetTick();
 8001994:	0005      	movs	r5, r0
  while((hrtc->Instance->ICSR & RTC_ICSR_RSF) == 0U)
 8001996:	e004      	b.n	80019a2 <RTC_ExitInitMode+0x62>
    if((HAL_GetTick() - tickstart ) > RTC_TIMEOUT_VALUE)
 8001998:	f7ff fa06 	bl	8000da8 <HAL_GetTick>
 800199c:	1b40      	subs	r0, r0, r5
 800199e:	42b8      	cmp	r0, r7
 80019a0:	d80a      	bhi.n	80019b8 <RTC_ExitInitMode+0x78>
  while((hrtc->Instance->ICSR & RTC_ICSR_RSF) == 0U)
 80019a2:	6823      	ldr	r3, [r4, #0]
 80019a4:	68db      	ldr	r3, [r3, #12]
 80019a6:	421e      	tst	r6, r3
 80019a8:	d0f6      	beq.n	8001998 <RTC_ExitInitMode+0x58>
  HAL_StatusTypeDef status = HAL_OK;
 80019aa:	2000      	movs	r0, #0
    {
      hrtc->State = HAL_RTC_STATE_TIMEOUT;
      status = HAL_TIMEOUT;
    }
    /* Restore BYPSHAD bit */
    SET_BIT(RTC->CR, RTC_CR_BYPSHAD);
 80019ac:	2120      	movs	r1, #32
 80019ae:	4a07      	ldr	r2, [pc, #28]	@ (80019cc <RTC_ExitInitMode+0x8c>)
 80019b0:	6993      	ldr	r3, [r2, #24]
 80019b2:	430b      	orrs	r3, r1
 80019b4:	6193      	str	r3, [r2, #24]
  }

  return status;
}
 80019b6:	bdf8      	pop	{r3, r4, r5, r6, r7, pc}
      hrtc->State = HAL_RTC_STATE_TIMEOUT;
 80019b8:	2329      	movs	r3, #41	@ 0x29
 80019ba:	2203      	movs	r2, #3
      status = HAL_TIMEOUT;
 80019bc:	2003      	movs	r0, #3
      hrtc->State = HAL_RTC_STATE_TIMEOUT;
 80019be:	54e2      	strb	r2, [r4, r3]
      status = HAL_TIMEOUT;
 80019c0:	e7f4      	b.n	80019ac <RTC_ExitInitMode+0x6c>
      hrtc->State = HAL_RTC_STATE_TIMEOUT;
 80019c2:	2329      	movs	r3, #41	@ 0x29
 80019c4:	2203      	movs	r2, #3
      status = HAL_TIMEOUT;
 80019c6:	2003      	movs	r0, #3
      hrtc->State = HAL_RTC_STATE_TIMEOUT;
 80019c8:	54e2      	strb	r2, [r4, r3]
  return status;
 80019ca:	e7f4      	b.n	80019b6 <RTC_ExitInitMode+0x76>
 80019cc:	40002800 	.word	0x40002800
 80019d0:	0001005f 	.word	0x0001005f

080019d4 <HAL_RTC_Init>:
{
 80019d4:	b5f8      	push	{r3, r4, r5, r6, r7, lr}
 80019d6:	1e04      	subs	r4, r0, #0
  if(hrtc != NULL)
 80019d8:	d04e      	beq.n	8001a78 <HAL_RTC_Init+0xa4>
    if(hrtc->State == HAL_RTC_STATE_RESET)
 80019da:	2329      	movs	r3, #41	@ 0x29
 80019dc:	5cc3      	ldrb	r3, [r0, r3]
 80019de:	b2da      	uxtb	r2, r3
 80019e0:	2b00      	cmp	r3, #0
 80019e2:	d03a      	beq.n	8001a5a <HAL_RTC_Init+0x86>
    hrtc->State = HAL_RTC_STATE_BUSY;
 80019e4:	2329      	movs	r3, #41	@ 0x29
 80019e6:	2202      	movs	r2, #2
 80019e8:	54e2      	strb	r2, [r4, r3]
    if (__HAL_RTC_IS_CALENDAR_INITIALIZED(hrtc) == 0U)
 80019ea:	6823      	ldr	r3, [r4, #0]
 80019ec:	68da      	ldr	r2, [r3, #12]
 80019ee:	06d2      	lsls	r2, r2, #27
 80019f0:	d504      	bpl.n	80019fc <HAL_RTC_Init+0x28>
      hrtc->State = HAL_RTC_STATE_READY;
 80019f2:	2329      	movs	r3, #41	@ 0x29
 80019f4:	2201      	movs	r2, #1
 80019f6:	2000      	movs	r0, #0
 80019f8:	54e2      	strb	r2, [r4, r3]
}
 80019fa:	bdf8      	pop	{r3, r4, r5, r6, r7, pc}
      __HAL_RTC_WRITEPROTECTION_DISABLE(hrtc);
 80019fc:	22ca      	movs	r2, #202	@ 0xca
 80019fe:	625a      	str	r2, [r3, #36]	@ 0x24
 8001a00:	3a77      	subs	r2, #119	@ 0x77
 8001a02:	625a      	str	r2, [r3, #36]	@ 0x24
  if((hrtc->Instance->ICSR & RTC_ICSR_INITF) == 0U)
 8001a04:	68da      	ldr	r2, [r3, #12]
 8001a06:	0652      	lsls	r2, r2, #25
 8001a08:	d538      	bpl.n	8001a7c <HAL_RTC_Init+0xa8>
        hrtc->Instance->CR &= ~(RTC_CR_FMT | RTC_CR_POL | RTC_CR_OSEL | RTC_CR_TAMPOE);
 8001a0a:	699a      	ldr	r2, [r3, #24]
 8001a0c:	492e      	ldr	r1, [pc, #184]	@ (8001ac8 <HAL_RTC_Init+0xf4>)
        hrtc->Instance->CR |= (hrtc->Init.HourFormat | hrtc->Init.OutPut | hrtc->Init.OutPutPolarity);
 8001a0e:	6960      	ldr	r0, [r4, #20]
        hrtc->Instance->CR &= ~(RTC_CR_FMT | RTC_CR_POL | RTC_CR_OSEL | RTC_CR_TAMPOE);
 8001a10:	400a      	ands	r2, r1
 8001a12:	619a      	str	r2, [r3, #24]
        hrtc->Instance->CR |= (hrtc->Init.HourFormat | hrtc->Init.OutPut | hrtc->Init.OutPutPolarity);
 8001a14:	68a2      	ldr	r2, [r4, #8]
 8001a16:	6999      	ldr	r1, [r3, #24]
 8001a18:	4302      	orrs	r2, r0
 8001a1a:	69e0      	ldr	r0, [r4, #28]
 8001a1c:	4302      	orrs	r2, r0
 8001a1e:	430a      	orrs	r2, r1
 8001a20:	619a      	str	r2, [r3, #24]
        hrtc->Instance->PRER = (hrtc->Init.SynchPrediv);
 8001a22:	6922      	ldr	r2, [r4, #16]
        status = RTC_ExitInitMode(hrtc);
 8001a24:	0020      	movs	r0, r4
        hrtc->Instance->PRER = (hrtc->Init.SynchPrediv);
 8001a26:	611a      	str	r2, [r3, #16]
        hrtc->Instance->PRER |= (hrtc->Init.AsynchPrediv << RTC_PRER_PREDIV_A_Pos);
 8001a28:	68e2      	ldr	r2, [r4, #12]
 8001a2a:	6919      	ldr	r1, [r3, #16]
 8001a2c:	0412      	lsls	r2, r2, #16
 8001a2e:	430a      	orrs	r2, r1
 8001a30:	611a      	str	r2, [r3, #16]
        status = RTC_ExitInitMode(hrtc);
 8001a32:	f7ff ff85 	bl	8001940 <RTC_ExitInitMode>
      if (status == HAL_OK)
 8001a36:	2800      	cmp	r0, #0
 8001a38:	d13e      	bne.n	8001ab8 <HAL_RTC_Init+0xe4>
        hrtc->Instance->CR &= ~(RTC_CR_TAMPALRM_PU |RTC_CR_TAMPALRM_TYPE | RTC_CR_OUT2EN);
 8001a3a:	6822      	ldr	r2, [r4, #0]
        hrtc->Instance->CR |= (hrtc->Init.OutPutPullUp | hrtc->Init.OutPutType | hrtc->Init.OutPutRemap);
 8001a3c:	6a20      	ldr	r0, [r4, #32]
        hrtc->Instance->CR &= ~(RTC_CR_TAMPALRM_PU |RTC_CR_TAMPALRM_TYPE | RTC_CR_OUT2EN);
 8001a3e:	6993      	ldr	r3, [r2, #24]
 8001a40:	00db      	lsls	r3, r3, #3
 8001a42:	08db      	lsrs	r3, r3, #3
 8001a44:	6193      	str	r3, [r2, #24]
        hrtc->Instance->CR |= (hrtc->Init.OutPutPullUp | hrtc->Init.OutPutType | hrtc->Init.OutPutRemap);
 8001a46:	6a63      	ldr	r3, [r4, #36]	@ 0x24
 8001a48:	6991      	ldr	r1, [r2, #24]
 8001a4a:	4303      	orrs	r3, r0
 8001a4c:	69a0      	ldr	r0, [r4, #24]
 8001a4e:	4303      	orrs	r3, r0
 8001a50:	430b      	orrs	r3, r1
 8001a52:	6193      	str	r3, [r2, #24]
      __HAL_RTC_WRITEPROTECTION_ENABLE(hrtc);
 8001a54:	23ff      	movs	r3, #255	@ 0xff
 8001a56:	6253      	str	r3, [r2, #36]	@ 0x24
    if (status == HAL_OK)
 8001a58:	e7cb      	b.n	80019f2 <HAL_RTC_Init+0x1e>
      hrtc->Lock = HAL_UNLOCKED;
 8001a5a:	3328      	adds	r3, #40	@ 0x28
 8001a5c:	54c2      	strb	r2, [r0, r3]
      hrtc->TampOffset = (TAMP_BASE - RTC_BASE);
 8001a5e:	2388      	movs	r3, #136	@ 0x88
 8001a60:	021b      	lsls	r3, r3, #8
 8001a62:	6043      	str	r3, [r0, #4]
      HAL_RTC_MspInit(hrtc);
 8001a64:	f7fe ff7e 	bl	8000964 <HAL_RTC_MspInit>
    hrtc->State = HAL_RTC_STATE_BUSY;
 8001a68:	2329      	movs	r3, #41	@ 0x29
 8001a6a:	2202      	movs	r2, #2
 8001a6c:	54e2      	strb	r2, [r4, r3]
    if (__HAL_RTC_IS_CALENDAR_INITIALIZED(hrtc) == 0U)
 8001a6e:	6823      	ldr	r3, [r4, #0]
 8001a70:	68da      	ldr	r2, [r3, #12]
 8001a72:	06d2      	lsls	r2, r2, #27
 8001a74:	d4bd      	bmi.n	80019f2 <HAL_RTC_Init+0x1e>
 8001a76:	e7c1      	b.n	80019fc <HAL_RTC_Init+0x28>
  HAL_StatusTypeDef status = HAL_ERROR;
 8001a78:	2001      	movs	r0, #1
 8001a7a:	e7be      	b.n	80019fa <HAL_RTC_Init+0x26>
    SET_BIT(hrtc->Instance->ICSR, RTC_ICSR_INIT);
 8001a7c:	2180      	movs	r1, #128	@ 0x80
 8001a7e:	68da      	ldr	r2, [r3, #12]
      if((HAL_GetTick()  - tickstart ) > RTC_TIMEOUT_VALUE)
 8001a80:	27fa      	movs	r7, #250	@ 0xfa
    SET_BIT(hrtc->Instance->ICSR, RTC_ICSR_INIT);
 8001a82:	430a      	orrs	r2, r1
 8001a84:	60da      	str	r2, [r3, #12]
    tickstart = HAL_GetTick();
 8001a86:	f7ff f98f 	bl	8000da8 <HAL_GetTick>
  HAL_StatusTypeDef status = HAL_OK;  
 8001a8a:	2200      	movs	r2, #0
    tickstart = HAL_GetTick();
 8001a8c:	0005      	movs	r5, r0
      if((HAL_GetTick()  - tickstart ) > RTC_TIMEOUT_VALUE)
 8001a8e:	00bf      	lsls	r7, r7, #2
    while(((hrtc->Instance->ICSR & RTC_ICSR_INITF) == 0U) && (status != HAL_TIMEOUT))
 8001a90:	2640      	movs	r6, #64	@ 0x40
 8001a92:	e007      	b.n	8001aa4 <HAL_RTC_Init+0xd0>
 8001a94:	2a03      	cmp	r2, #3
 8001a96:	d00b      	beq.n	8001ab0 <HAL_RTC_Init+0xdc>
      if((HAL_GetTick()  - tickstart ) > RTC_TIMEOUT_VALUE)
 8001a98:	f7ff f986 	bl	8000da8 <HAL_GetTick>
 8001a9c:	2200      	movs	r2, #0
 8001a9e:	1b40      	subs	r0, r0, r5
 8001aa0:	42b8      	cmp	r0, r7
 8001aa2:	d80d      	bhi.n	8001ac0 <HAL_RTC_Init+0xec>
    while(((hrtc->Instance->ICSR & RTC_ICSR_INITF) == 0U) && (status != HAL_TIMEOUT))
 8001aa4:	6823      	ldr	r3, [r4, #0]
 8001aa6:	68d9      	ldr	r1, [r3, #12]
 8001aa8:	420e      	tst	r6, r1
 8001aaa:	d0f3      	beq.n	8001a94 <HAL_RTC_Init+0xc0>
      if(status == HAL_OK)
 8001aac:	2a00      	cmp	r2, #0
 8001aae:	d0ac      	beq.n	8001a0a <HAL_RTC_Init+0x36>
      __HAL_RTC_WRITEPROTECTION_ENABLE(hrtc);
 8001ab0:	22ff      	movs	r2, #255	@ 0xff
 8001ab2:	2003      	movs	r0, #3
 8001ab4:	625a      	str	r2, [r3, #36]	@ 0x24
    if (status == HAL_OK)
 8001ab6:	e7a0      	b.n	80019fa <HAL_RTC_Init+0x26>
      __HAL_RTC_WRITEPROTECTION_ENABLE(hrtc);
 8001ab8:	22ff      	movs	r2, #255	@ 0xff
 8001aba:	6823      	ldr	r3, [r4, #0]
 8001abc:	625a      	str	r2, [r3, #36]	@ 0x24
    if (status == HAL_OK)
 8001abe:	e79c      	b.n	80019fa <HAL_RTC_Init+0x26>
        hrtc->State = HAL_RTC_STATE_TIMEOUT;
 8001ac0:	2329      	movs	r3, #41	@ 0x29
 8001ac2:	3203      	adds	r2, #3
 8001ac4:	54e2      	strb	r2, [r4, r3]
 8001ac6:	e7e3      	b.n	8001a90 <HAL_RTC_Init+0xbc>
 8001ac8:	fb8fffbf 	.word	0xfb8fffbf

08001acc <HAL_RTC_SetTime>:
{
 8001acc:	b5f8      	push	{r3, r4, r5, r6, r7, lr}
 8001ace:	46ce      	mov	lr, r9
 8001ad0:	4647      	mov	r7, r8
  __HAL_LOCK(hrtc);
 8001ad2:	2328      	movs	r3, #40	@ 0x28
{
 8001ad4:	b580      	push	{r7, lr}
 8001ad6:	0015      	movs	r5, r2
  __HAL_LOCK(hrtc);
 8001ad8:	5cc2      	ldrb	r2, [r0, r3]
{
 8001ada:	0004      	movs	r4, r0
 8001adc:	000e      	movs	r6, r1
  __HAL_LOCK(hrtc);
 8001ade:	2a01      	cmp	r2, #1
 8001ae0:	d064      	beq.n	8001bac <HAL_RTC_SetTime+0xe0>
 8001ae2:	2201      	movs	r2, #1
 8001ae4:	54c2      	strb	r2, [r0, r3]
  hrtc->State = HAL_RTC_STATE_BUSY;
 8001ae6:	3301      	adds	r3, #1
 8001ae8:	3201      	adds	r2, #1
 8001aea:	54c2      	strb	r2, [r0, r3]
  __HAL_RTC_WRITEPROTECTION_DISABLE(hrtc);
 8001aec:	6803      	ldr	r3, [r0, #0]
 8001aee:	32c8      	adds	r2, #200	@ 0xc8
 8001af0:	625a      	str	r2, [r3, #36]	@ 0x24
 8001af2:	3a77      	subs	r2, #119	@ 0x77
 8001af4:	625a      	str	r2, [r3, #36]	@ 0x24
  if((hrtc->Instance->ICSR & RTC_ICSR_INITF) == 0U)
 8001af6:	68da      	ldr	r2, [r3, #12]
 8001af8:	0652      	lsls	r2, r2, #25
 8001afa:	d533      	bpl.n	8001b64 <HAL_RTC_SetTime+0x98>
    if((hrtc->Instance->CR & RTC_CR_FMT) != 0U)
 8001afc:	699a      	ldr	r2, [r3, #24]
    if(Format == RTC_FORMAT_BIN)
 8001afe:	2d00      	cmp	r5, #0
 8001b00:	d159      	bne.n	8001bb6 <HAL_RTC_SetTime+0xea>
    if((hrtc->Instance->CR & RTC_CR_FMT) != 0U)
 8001b02:	2140      	movs	r1, #64	@ 0x40
 8001b04:	0008      	movs	r0, r1
 8001b06:	4010      	ands	r0, r2
 8001b08:	4211      	tst	r1, r2
 8001b0a:	d100      	bne.n	8001b0e <HAL_RTC_SetTime+0x42>
 8001b0c:	e081      	b.n	8001c12 <HAL_RTC_SetTime+0x146>
                ((uint32_t)(sTime->TimeFormat) << RTC_TR_PM_Pos));
 8001b0e:	78f0      	ldrb	r0, [r6, #3]
 8001b10:	0580      	lsls	r0, r0, #22
      tmpreg = (uint32_t)(((uint32_t)RTC_ByteToBcd2(sTime->Hours) << RTC_TR_HU_Pos) | \
 8001b12:	7832      	ldrb	r2, [r6, #0]
uint8_t RTC_ByteToBcd2(uint8_t Value)
{
  uint32_t bcdhigh = 0U;
  uint8_t Param = Value;

  while(Param >= 10U)
 8001b14:	2a09      	cmp	r2, #9
 8001b16:	d908      	bls.n	8001b2a <HAL_RTC_SetTime+0x5e>
  uint32_t bcdhigh = 0U;
 8001b18:	2100      	movs	r1, #0
  {
    bcdhigh++;
    Param -= 10U;
 8001b1a:	3a0a      	subs	r2, #10
 8001b1c:	b2d2      	uxtb	r2, r2
    bcdhigh++;
 8001b1e:	3101      	adds	r1, #1
  while(Param >= 10U)
 8001b20:	2a09      	cmp	r2, #9
 8001b22:	d8fa      	bhi.n	8001b1a <HAL_RTC_SetTime+0x4e>
  }

  return  ((uint8_t)(bcdhigh << 4U) | Param);
 8001b24:	0109      	lsls	r1, r1, #4
 8001b26:	430a      	orrs	r2, r1
 8001b28:	b2d2      	uxtb	r2, r2
      tmpreg = (uint32_t)(((uint32_t)RTC_ByteToBcd2(sTime->Hours) << RTC_TR_HU_Pos) | \
 8001b2a:	0417      	lsls	r7, r2, #16
                          ((uint32_t)RTC_ByteToBcd2(sTime->Minutes) << RTC_TR_MNU_Pos) | \
 8001b2c:	7872      	ldrb	r2, [r6, #1]
  while(Param >= 10U)
 8001b2e:	2a09      	cmp	r2, #9
 8001b30:	d908      	bls.n	8001b44 <HAL_RTC_SetTime+0x78>
  uint32_t bcdhigh = 0U;
 8001b32:	2100      	movs	r1, #0
    Param -= 10U;
 8001b34:	3a0a      	subs	r2, #10
 8001b36:	b2d2      	uxtb	r2, r2
    bcdhigh++;
 8001b38:	3101      	adds	r1, #1
  while(Param >= 10U)
 8001b3a:	2a09      	cmp	r2, #9
 8001b3c:	d8fa      	bhi.n	8001b34 <HAL_RTC_SetTime+0x68>
  return  ((uint8_t)(bcdhigh << 4U) | Param);
 8001b3e:	0109      	lsls	r1, r1, #4
 8001b40:	430a      	orrs	r2, r1
 8001b42:	b2d2      	uxtb	r2, r2
                          ((uint32_t)RTC_ByteToBcd2(sTime->Seconds) << RTC_TR_SU_Pos) | \
 8001b44:	78b1      	ldrb	r1, [r6, #2]
                          ((uint32_t)RTC_ByteToBcd2(sTime->Minutes) << RTC_TR_MNU_Pos) | \
 8001b46:	0212      	lsls	r2, r2, #8
  while(Param >= 10U)
 8001b48:	2909      	cmp	r1, #9
 8001b4a:	d907      	bls.n	8001b5c <HAL_RTC_SetTime+0x90>
    Param -= 10U;
 8001b4c:	390a      	subs	r1, #10
 8001b4e:	b2c9      	uxtb	r1, r1
    bcdhigh++;
 8001b50:	3501      	adds	r5, #1
  while(Param >= 10U)
 8001b52:	2909      	cmp	r1, #9
 8001b54:	d8fa      	bhi.n	8001b4c <HAL_RTC_SetTime+0x80>
  return  ((uint8_t)(bcdhigh << 4U) | Param);
 8001b56:	012d      	lsls	r5, r5, #4
 8001b58:	4329      	orrs	r1, r5
 8001b5a:	b2c9      	uxtb	r1, r1
      tmpreg = (uint32_t)(((uint32_t)RTC_ByteToBcd2(sTime->Hours) << RTC_TR_HU_Pos) | \
 8001b5c:	4307      	orrs	r7, r0
 8001b5e:	433a      	orrs	r2, r7
 8001b60:	430a      	orrs	r2, r1
 8001b62:	e037      	b.n	8001bd4 <HAL_RTC_SetTime+0x108>
    SET_BIT(hrtc->Instance->ICSR, RTC_ICSR_INIT);
 8001b64:	2180      	movs	r1, #128	@ 0x80
 8001b66:	68da      	ldr	r2, [r3, #12]
 8001b68:	430a      	orrs	r2, r1
 8001b6a:	60da      	str	r2, [r3, #12]
    tickstart = HAL_GetTick();
 8001b6c:	f7ff f91c 	bl	8000da8 <HAL_GetTick>
      if((HAL_GetTick()  - tickstart ) > RTC_TIMEOUT_VALUE)
 8001b70:	23fa      	movs	r3, #250	@ 0xfa
 8001b72:	009b      	lsls	r3, r3, #2
    tickstart = HAL_GetTick();
 8001b74:	0007      	movs	r7, r0
  HAL_StatusTypeDef status = HAL_OK;  
 8001b76:	2200      	movs	r2, #0
      if((HAL_GetTick()  - tickstart ) > RTC_TIMEOUT_VALUE)
 8001b78:	4699      	mov	r9, r3
    while(((hrtc->Instance->ICSR & RTC_ICSR_INITF) == 0U) && (status != HAL_TIMEOUT))
 8001b7a:	2340      	movs	r3, #64	@ 0x40
 8001b7c:	4698      	mov	r8, r3
 8001b7e:	e007      	b.n	8001b90 <HAL_RTC_SetTime+0xc4>
 8001b80:	2a03      	cmp	r2, #3
 8001b82:	d00c      	beq.n	8001b9e <HAL_RTC_SetTime+0xd2>
      if((HAL_GetTick()  - tickstart ) > RTC_TIMEOUT_VALUE)
 8001b84:	f7ff f910 	bl	8000da8 <HAL_GetTick>
 8001b88:	2200      	movs	r2, #0
 8001b8a:	1bc0      	subs	r0, r0, r7
 8001b8c:	4548      	cmp	r0, r9
 8001b8e:	d83a      	bhi.n	8001c06 <HAL_RTC_SetTime+0x13a>
    while(((hrtc->Instance->ICSR & RTC_ICSR_INITF) == 0U) && (status != HAL_TIMEOUT))
 8001b90:	4640      	mov	r0, r8
 8001b92:	6823      	ldr	r3, [r4, #0]
 8001b94:	68d9      	ldr	r1, [r3, #12]
 8001b96:	4208      	tst	r0, r1
 8001b98:	d0f2      	beq.n	8001b80 <HAL_RTC_SetTime+0xb4>
  if(status == HAL_OK)
 8001b9a:	2a00      	cmp	r2, #0
 8001b9c:	d0ae      	beq.n	8001afc <HAL_RTC_SetTime+0x30>
  __HAL_RTC_WRITEPROTECTION_ENABLE(hrtc);
 8001b9e:	22ff      	movs	r2, #255	@ 0xff
 8001ba0:	2003      	movs	r0, #3
 8001ba2:	625a      	str	r2, [r3, #36]	@ 0x24
  __HAL_UNLOCK(hrtc);
 8001ba4:	2328      	movs	r3, #40	@ 0x28
 8001ba6:	2200      	movs	r2, #0
 8001ba8:	54e2      	strb	r2, [r4, r3]
  return status;
 8001baa:	e000      	b.n	8001bae <HAL_RTC_SetTime+0xe2>
  __HAL_LOCK(hrtc);
 8001bac:	2002      	movs	r0, #2
}
 8001bae:	bcc0      	pop	{r6, r7}
 8001bb0:	46b9      	mov	r9, r7
 8001bb2:	46b0      	mov	r8, r6
 8001bb4:	bdf8      	pop	{r3, r4, r5, r6, r7, pc}
    if((hrtc->Instance->CR & RTC_CR_FMT) != 0U)
 8001bb6:	2040      	movs	r0, #64	@ 0x40
 8001bb8:	0001      	movs	r1, r0
 8001bba:	4011      	ands	r1, r2
 8001bbc:	4210      	tst	r0, r2
 8001bbe:	d026      	beq.n	8001c0e <HAL_RTC_SetTime+0x142>
                ((uint32_t)(sTime->TimeFormat) << RTC_TR_PM_Pos));
 8001bc0:	78f1      	ldrb	r1, [r6, #3]
 8001bc2:	0589      	lsls	r1, r1, #22
      tmpreg = (((uint32_t)(sTime->Hours) << RTC_TR_HU_Pos) | \
 8001bc4:	7832      	ldrb	r2, [r6, #0]
                ((uint32_t)(sTime->Minutes) << RTC_TR_MNU_Pos) | \
 8001bc6:	7870      	ldrb	r0, [r6, #1]
      tmpreg = (((uint32_t)(sTime->Hours) << RTC_TR_HU_Pos) | \
 8001bc8:	0412      	lsls	r2, r2, #16
                ((uint32_t)(sTime->Minutes) << RTC_TR_MNU_Pos) | \
 8001bca:	0200      	lsls	r0, r0, #8
      tmpreg = (((uint32_t)(sTime->Hours) << RTC_TR_HU_Pos) | \
 8001bcc:	4302      	orrs	r2, r0
                ((uint32_t)(sTime->Seconds) << RTC_TR_SU_Pos) | \
 8001bce:	78b0      	ldrb	r0, [r6, #2]
                ((uint32_t)(sTime->Minutes) << RTC_TR_MNU_Pos) | \
 8001bd0:	4302      	orrs	r2, r0
      tmpreg = (((uint32_t)(sTime->Hours) << RTC_TR_HU_Pos) | \
 8001bd2:	430a      	orrs	r2, r1
    hrtc->Instance->TR = (uint32_t)(tmpreg & RTC_TR_RESERVED_MASK);
 8001bd4:	4910      	ldr	r1, [pc, #64]	@ (8001c18 <HAL_RTC_SetTime+0x14c>)
    hrtc->Instance->CR |= (uint32_t)(sTime->DayLightSaving | sTime->StoreOperation);
 8001bd6:	6930      	ldr	r0, [r6, #16]
    hrtc->Instance->TR = (uint32_t)(tmpreg & RTC_TR_RESERVED_MASK);
 8001bd8:	400a      	ands	r2, r1
 8001bda:	601a      	str	r2, [r3, #0]
    hrtc->Instance->CR &= ((uint32_t)~RTC_CR_BKP);
 8001bdc:	699a      	ldr	r2, [r3, #24]
 8001bde:	490f      	ldr	r1, [pc, #60]	@ (8001c1c <HAL_RTC_SetTime+0x150>)
 8001be0:	400a      	ands	r2, r1
 8001be2:	619a      	str	r2, [r3, #24]
    hrtc->Instance->CR |= (uint32_t)(sTime->DayLightSaving | sTime->StoreOperation);
 8001be4:	68f2      	ldr	r2, [r6, #12]
 8001be6:	6999      	ldr	r1, [r3, #24]
 8001be8:	4302      	orrs	r2, r0
 8001bea:	430a      	orrs	r2, r1
 8001bec:	619a      	str	r2, [r3, #24]
    status = RTC_ExitInitMode(hrtc);
 8001bee:	0020      	movs	r0, r4
 8001bf0:	f7ff fea6 	bl	8001940 <RTC_ExitInitMode>
  __HAL_RTC_WRITEPROTECTION_ENABLE(hrtc);
 8001bf4:	22ff      	movs	r2, #255	@ 0xff
 8001bf6:	6823      	ldr	r3, [r4, #0]
 8001bf8:	625a      	str	r2, [r3, #36]	@ 0x24
  if (status == HAL_OK)
 8001bfa:	2800      	cmp	r0, #0
 8001bfc:	d1d2      	bne.n	8001ba4 <HAL_RTC_SetTime+0xd8>
   hrtc->State = HAL_RTC_STATE_READY;
 8001bfe:	2329      	movs	r3, #41	@ 0x29
 8001c00:	3afe      	subs	r2, #254	@ 0xfe
 8001c02:	54e2      	strb	r2, [r4, r3]
 8001c04:	e7ce      	b.n	8001ba4 <HAL_RTC_SetTime+0xd8>
        hrtc->State = HAL_RTC_STATE_TIMEOUT;
 8001c06:	2329      	movs	r3, #41	@ 0x29
 8001c08:	3203      	adds	r2, #3
 8001c0a:	54e2      	strb	r2, [r4, r3]
 8001c0c:	e7b5      	b.n	8001b7a <HAL_RTC_SetTime+0xae>
        sTime->TimeFormat = 0x00U;
 8001c0e:	70f1      	strb	r1, [r6, #3]
 8001c10:	e7d8      	b.n	8001bc4 <HAL_RTC_SetTime+0xf8>
        sTime->TimeFormat = 0x00U;
 8001c12:	70f5      	strb	r5, [r6, #3]
 8001c14:	e77d      	b.n	8001b12 <HAL_RTC_SetTime+0x46>
 8001c16:	46c0      	nop			@ (mov r8, r8)
 8001c18:	007f7f7f 	.word	0x007f7f7f
 8001c1c:	fffbffff 	.word	0xfffbffff

08001c20 <HAL_RTC_SetDate>:
{
 8001c20:	b5f0      	push	{r4, r5, r6, r7, lr}
 8001c22:	46c6      	mov	lr, r8
 __HAL_LOCK(hrtc);
 8001c24:	2328      	movs	r3, #40	@ 0x28
{
 8001c26:	b500      	push	{lr}
 8001c28:	0005      	movs	r5, r0
 __HAL_LOCK(hrtc);
 8001c2a:	5cc0      	ldrb	r0, [r0, r3]
 8001c2c:	2801      	cmp	r0, #1
 8001c2e:	d100      	bne.n	8001c32 <HAL_RTC_SetDate+0x12>
 8001c30:	e089      	b.n	8001d46 <HAL_RTC_SetDate+0x126>
 8001c32:	2001      	movs	r0, #1
 8001c34:	54e8      	strb	r0, [r5, r3]
  hrtc->State = HAL_RTC_STATE_BUSY;
 8001c36:	3301      	adds	r3, #1
 8001c38:	3001      	adds	r0, #1
 8001c3a:	54e8      	strb	r0, [r5, r3]
                  (((uint32_t)sDate->WeekDay) << RTC_DR_WDU_Pos));
 8001c3c:	780f      	ldrb	r7, [r1, #0]
    datetmpreg = ((((uint32_t)sDate->Year) << RTC_DR_YU_Pos) | \
 8001c3e:	78cb      	ldrb	r3, [r1, #3]
                  (((uint32_t)sDate->Month) << RTC_DR_MU_Pos) | \
 8001c40:	7848      	ldrb	r0, [r1, #1]
                  (((uint32_t)sDate->Date) << RTC_DR_DU_Pos)| \
 8001c42:	788e      	ldrb	r6, [r1, #2]
                  (((uint32_t)sDate->WeekDay) << RTC_DR_WDU_Pos));
 8001c44:	037f      	lsls	r7, r7, #13
  if((Format == RTC_FORMAT_BIN) && ((sDate->Month & 0x10U) == 0x10U))
 8001c46:	2a00      	cmp	r2, #0
 8001c48:	d022      	beq.n	8001c90 <HAL_RTC_SetDate+0x70>
    datetmpreg = ((((uint32_t)sDate->Year) << RTC_DR_YU_Pos) | \
 8001c4a:	041c      	lsls	r4, r3, #16
  __HAL_RTC_WRITEPROTECTION_DISABLE(hrtc);
 8001c4c:	23ca      	movs	r3, #202	@ 0xca
 8001c4e:	682a      	ldr	r2, [r5, #0]
    datetmpreg = ((((uint32_t)sDate->Year) << RTC_DR_YU_Pos) | \
 8001c50:	433c      	orrs	r4, r7
  __HAL_RTC_WRITEPROTECTION_DISABLE(hrtc);
 8001c52:	6253      	str	r3, [r2, #36]	@ 0x24
 8001c54:	3b77      	subs	r3, #119	@ 0x77
 8001c56:	6253      	str	r3, [r2, #36]	@ 0x24
    datetmpreg = ((((uint32_t)sDate->Year) << RTC_DR_YU_Pos) | \
 8001c58:	4334      	orrs	r4, r6
                  (((uint32_t)sDate->Month) << RTC_DR_MU_Pos) | \
 8001c5a:	0200      	lsls	r0, r0, #8
  if((hrtc->Instance->ICSR & RTC_ICSR_INITF) == 0U)
 8001c5c:	68d3      	ldr	r3, [r2, #12]
    datetmpreg = ((((uint32_t)sDate->Year) << RTC_DR_YU_Pos) | \
 8001c5e:	4304      	orrs	r4, r0
 8001c60:	46a0      	mov	r8, r4
  if((hrtc->Instance->ICSR & RTC_ICSR_INITF) == 0U)
 8001c62:	065b      	lsls	r3, r3, #25
 8001c64:	d549      	bpl.n	8001cfa <HAL_RTC_SetDate+0xda>
    hrtc->Instance->DR = (uint32_t)(datetmpreg & RTC_DR_RESERVED_MASK);
 8001c66:	4644      	mov	r4, r8
 8001c68:	4b39      	ldr	r3, [pc, #228]	@ (8001d50 <HAL_RTC_SetDate+0x130>)
    status = RTC_ExitInitMode(hrtc);
 8001c6a:	0028      	movs	r0, r5
    hrtc->Instance->DR = (uint32_t)(datetmpreg & RTC_DR_RESERVED_MASK);
 8001c6c:	401c      	ands	r4, r3
 8001c6e:	6054      	str	r4, [r2, #4]
    status = RTC_ExitInitMode(hrtc);
 8001c70:	f7ff fe66 	bl	8001940 <RTC_ExitInitMode>
  __HAL_RTC_WRITEPROTECTION_ENABLE(hrtc);
 8001c74:	22ff      	movs	r2, #255	@ 0xff
 8001c76:	682b      	ldr	r3, [r5, #0]
 8001c78:	625a      	str	r2, [r3, #36]	@ 0x24
  if (status == HAL_OK)
 8001c7a:	2800      	cmp	r0, #0
 8001c7c:	d102      	bne.n	8001c84 <HAL_RTC_SetDate+0x64>
    hrtc->State = HAL_RTC_STATE_READY;
 8001c7e:	2329      	movs	r3, #41	@ 0x29
 8001c80:	3afe      	subs	r2, #254	@ 0xfe
 8001c82:	54ea      	strb	r2, [r5, r3]
  __HAL_UNLOCK(hrtc);
 8001c84:	2328      	movs	r3, #40	@ 0x28
 8001c86:	2200      	movs	r2, #0
 8001c88:	54ea      	strb	r2, [r5, r3]
}
 8001c8a:	bc80      	pop	{r7}
 8001c8c:	46b8      	mov	r8, r7
 8001c8e:	bdf0      	pop	{r4, r5, r6, r7, pc}
  if((Format == RTC_FORMAT_BIN) && ((sDate->Month & 0x10U) == 0x10U))
 8001c90:	2410      	movs	r4, #16
 8001c92:	4204      	tst	r4, r0
 8001c94:	d04f      	beq.n	8001d36 <HAL_RTC_SetDate+0x116>
    sDate->Month = (uint8_t)((sDate->Month & (uint8_t)~(0x10U)) + (uint8_t)0x0AU);
 8001c96:	43a0      	bics	r0, r4
 8001c98:	300a      	adds	r0, #10
 8001c9a:	b2c0      	uxtb	r0, r0
 8001c9c:	7048      	strb	r0, [r1, #1]
  while(Param >= 10U)
 8001c9e:	2b09      	cmp	r3, #9
 8001ca0:	d953      	bls.n	8001d4a <HAL_RTC_SetDate+0x12a>
  uint32_t bcdhigh = 0U;
 8001ca2:	2100      	movs	r1, #0
    Param -= 10U;
 8001ca4:	3b0a      	subs	r3, #10
 8001ca6:	b2db      	uxtb	r3, r3
    bcdhigh++;
 8001ca8:	3101      	adds	r1, #1
  while(Param >= 10U)
 8001caa:	2b09      	cmp	r3, #9
 8001cac:	d8fa      	bhi.n	8001ca4 <HAL_RTC_SetDate+0x84>
  return  ((uint8_t)(bcdhigh << 4U) | Param);
 8001cae:	0109      	lsls	r1, r1, #4
 8001cb0:	430b      	orrs	r3, r1
 8001cb2:	b2db      	uxtb	r3, r3
   datetmpreg = (((uint32_t)RTC_ByteToBcd2(sDate->Year)  << RTC_DR_YU_Pos) | \
 8001cb4:	041b      	lsls	r3, r3, #16
  while(Param >= 10U)
 8001cb6:	2809      	cmp	r0, #9
 8001cb8:	d908      	bls.n	8001ccc <HAL_RTC_SetDate+0xac>
  uint32_t bcdhigh = 0U;
 8001cba:	2100      	movs	r1, #0
    Param -= 10U;
 8001cbc:	380a      	subs	r0, #10
 8001cbe:	b2c0      	uxtb	r0, r0
    bcdhigh++;
 8001cc0:	3101      	adds	r1, #1
  while(Param >= 10U)
 8001cc2:	2809      	cmp	r0, #9
 8001cc4:	d8fa      	bhi.n	8001cbc <HAL_RTC_SetDate+0x9c>
  return  ((uint8_t)(bcdhigh << 4U) | Param);
 8001cc6:	0109      	lsls	r1, r1, #4
 8001cc8:	4308      	orrs	r0, r1
 8001cca:	b2c0      	uxtb	r0, r0
                 ((uint32_t)RTC_ByteToBcd2(sDate->Month) << RTC_DR_MU_Pos) | \
 8001ccc:	0200      	lsls	r0, r0, #8
  while(Param >= 10U)
 8001cce:	2e09      	cmp	r6, #9
 8001cd0:	d907      	bls.n	8001ce2 <HAL_RTC_SetDate+0xc2>
    Param -= 10U;
 8001cd2:	3e0a      	subs	r6, #10
 8001cd4:	b2f6      	uxtb	r6, r6
    bcdhigh++;
 8001cd6:	3201      	adds	r2, #1
  while(Param >= 10U)
 8001cd8:	2e09      	cmp	r6, #9
 8001cda:	d8fa      	bhi.n	8001cd2 <HAL_RTC_SetDate+0xb2>
  return  ((uint8_t)(bcdhigh << 4U) | Param);
 8001cdc:	0112      	lsls	r2, r2, #4
 8001cde:	4316      	orrs	r6, r2
 8001ce0:	b2f6      	uxtb	r6, r6
   datetmpreg = (((uint32_t)RTC_ByteToBcd2(sDate->Year)  << RTC_DR_YU_Pos) | \
 8001ce2:	433b      	orrs	r3, r7
 8001ce4:	4303      	orrs	r3, r0
 8001ce6:	4333      	orrs	r3, r6
 8001ce8:	4698      	mov	r8, r3
  __HAL_RTC_WRITEPROTECTION_DISABLE(hrtc);
 8001cea:	23ca      	movs	r3, #202	@ 0xca
 8001cec:	682a      	ldr	r2, [r5, #0]
 8001cee:	6253      	str	r3, [r2, #36]	@ 0x24
 8001cf0:	3b77      	subs	r3, #119	@ 0x77
 8001cf2:	6253      	str	r3, [r2, #36]	@ 0x24
  if((hrtc->Instance->ICSR & RTC_ICSR_INITF) == 0U)
 8001cf4:	68d3      	ldr	r3, [r2, #12]
 8001cf6:	065b      	lsls	r3, r3, #25
 8001cf8:	d4b5      	bmi.n	8001c66 <HAL_RTC_SetDate+0x46>
    SET_BIT(hrtc->Instance->ICSR, RTC_ICSR_INIT);
 8001cfa:	2180      	movs	r1, #128	@ 0x80
 8001cfc:	68d3      	ldr	r3, [r2, #12]
      if((HAL_GetTick()  - tickstart ) > RTC_TIMEOUT_VALUE)
 8001cfe:	24fa      	movs	r4, #250	@ 0xfa
    SET_BIT(hrtc->Instance->ICSR, RTC_ICSR_INIT);
 8001d00:	430b      	orrs	r3, r1
 8001d02:	60d3      	str	r3, [r2, #12]
    tickstart = HAL_GetTick();
 8001d04:	f7ff f850 	bl	8000da8 <HAL_GetTick>
  HAL_StatusTypeDef status = HAL_OK;  
 8001d08:	2300      	movs	r3, #0
    tickstart = HAL_GetTick();
 8001d0a:	0006      	movs	r6, r0
      if((HAL_GetTick()  - tickstart ) > RTC_TIMEOUT_VALUE)
 8001d0c:	00a4      	lsls	r4, r4, #2
    while(((hrtc->Instance->ICSR & RTC_ICSR_INITF) == 0U) && (status != HAL_TIMEOUT))
 8001d0e:	2740      	movs	r7, #64	@ 0x40
 8001d10:	e007      	b.n	8001d22 <HAL_RTC_SetDate+0x102>
 8001d12:	2b03      	cmp	r3, #3
 8001d14:	d00b      	beq.n	8001d2e <HAL_RTC_SetDate+0x10e>
      if((HAL_GetTick()  - tickstart ) > RTC_TIMEOUT_VALUE)
 8001d16:	f7ff f847 	bl	8000da8 <HAL_GetTick>
 8001d1a:	2300      	movs	r3, #0
 8001d1c:	1b80      	subs	r0, r0, r6
 8001d1e:	42a0      	cmp	r0, r4
 8001d20:	d80c      	bhi.n	8001d3c <HAL_RTC_SetDate+0x11c>
    while(((hrtc->Instance->ICSR & RTC_ICSR_INITF) == 0U) && (status != HAL_TIMEOUT))
 8001d22:	682a      	ldr	r2, [r5, #0]
 8001d24:	68d1      	ldr	r1, [r2, #12]
 8001d26:	420f      	tst	r7, r1
 8001d28:	d0f3      	beq.n	8001d12 <HAL_RTC_SetDate+0xf2>
  if(status == HAL_OK)
 8001d2a:	2b00      	cmp	r3, #0
 8001d2c:	d09b      	beq.n	8001c66 <HAL_RTC_SetDate+0x46>
  __HAL_RTC_WRITEPROTECTION_ENABLE(hrtc);
 8001d2e:	23ff      	movs	r3, #255	@ 0xff
 8001d30:	2003      	movs	r0, #3
 8001d32:	6253      	str	r3, [r2, #36]	@ 0x24
  if (status == HAL_OK)
 8001d34:	e7a6      	b.n	8001c84 <HAL_RTC_SetDate+0x64>
  while(Param >= 10U)
 8001d36:	2b09      	cmp	r3, #9
 8001d38:	d8b3      	bhi.n	8001ca2 <HAL_RTC_SetDate+0x82>
 8001d3a:	e7bb      	b.n	8001cb4 <HAL_RTC_SetDate+0x94>
        hrtc->State = HAL_RTC_STATE_TIMEOUT;
 8001d3c:	2203      	movs	r2, #3
 8001d3e:	3329      	adds	r3, #41	@ 0x29
 8001d40:	54ea      	strb	r2, [r5, r3]
        status = HAL_TIMEOUT;
 8001d42:	3b26      	subs	r3, #38	@ 0x26
 8001d44:	e7e3      	b.n	8001d0e <HAL_RTC_SetDate+0xee>
 __HAL_LOCK(hrtc);
 8001d46:	2002      	movs	r0, #2
 8001d48:	e79f      	b.n	8001c8a <HAL_RTC_SetDate+0x6a>
   datetmpreg = (((uint32_t)RTC_ByteToBcd2(sDate->Year)  << RTC_DR_YU_Pos) | \
 8001d4a:	041b      	lsls	r3, r3, #16
  while(Param >= 10U)
 8001d4c:	e7b5      	b.n	8001cba <HAL_RTC_SetDate+0x9a>
 8001d4e:	46c0      	nop			@ (mov r8, r8)
 8001d50:	00ffff3f 	.word	0x00ffff3f

08001d54 <HAL_RTCEx_SetWakeUpTimer>:
  * @param  WakeUpCounter Wake up counter
  * @param  WakeUpClock Wake up clock
  * @retval HAL status
  */
HAL_StatusTypeDef HAL_RTCEx_SetWakeUpTimer(RTC_HandleTypeDef *hrtc, uint32_t WakeUpCounter, uint32_t WakeUpClock)
{
 8001d54:	b5f0      	push	{r4, r5, r6, r7, lr}
 8001d56:	464f      	mov	r7, r9
 8001d58:	4646      	mov	r6, r8
 8001d5a:	46d6      	mov	lr, sl
  /* Check the parameters */
  assert_param(IS_RTC_WAKEUP_CLOCK(WakeUpClock));
  assert_param(IS_RTC_WAKEUP_COUNTER(WakeUpCounter));

  /* Process Locked */
  __HAL_LOCK(hrtc);
 8001d5c:	2328      	movs	r3, #40	@ 0x28
{
 8001d5e:	b5c0      	push	{r6, r7, lr}
 8001d60:	0017      	movs	r7, r2
  __HAL_LOCK(hrtc);
 8001d62:	5cc2      	ldrb	r2, [r0, r3]
{
 8001d64:	0004      	movs	r4, r0
 8001d66:	000e      	movs	r6, r1
  __HAL_LOCK(hrtc);
 8001d68:	2a01      	cmp	r2, #1
 8001d6a:	d04b      	beq.n	8001e04 <HAL_RTCEx_SetWakeUpTimer+0xb0>
 8001d6c:	2201      	movs	r2, #1
 8001d6e:	54c2      	strb	r2, [r0, r3]

  hrtc->State = HAL_RTC_STATE_BUSY;
 8001d70:	3301      	adds	r3, #1
 8001d72:	3201      	adds	r2, #1
 8001d74:	54c2      	strb	r2, [r0, r3]

  /* Disable the write protection for RTC registers */
  __HAL_RTC_WRITEPROTECTION_DISABLE(hrtc);
 8001d76:	6803      	ldr	r3, [r0, #0]
 8001d78:	32c8      	adds	r2, #200	@ 0xc8
 8001d7a:	625a      	str	r2, [r3, #36]	@ 0x24
 8001d7c:	3a77      	subs	r2, #119	@ 0x77
 8001d7e:	625a      	str	r2, [r3, #36]	@ 0x24

  /* Clear WUTE in RTC_CR to disable the wakeup timer */
  CLEAR_BIT(RTC->CR, RTC_CR_WUTE);
 8001d80:	4a21      	ldr	r2, [pc, #132]	@ (8001e08 <HAL_RTCEx_SetWakeUpTimer+0xb4>)
 8001d82:	4822      	ldr	r0, [pc, #136]	@ (8001e0c <HAL_RTCEx_SetWakeUpTimer+0xb8>)
 8001d84:	6991      	ldr	r1, [r2, #24]
 8001d86:	4001      	ands	r1, r0
 8001d88:	6191      	str	r1, [r2, #24]

  /* Poll WUTWF until it is set in RTC_ICSR to make sure the access to wakeup autoreload
     counter and to WUCKSEL[2:0] bits is allowed. This step must be skipped in
     calendar initialization mode. */
  if (READ_BIT(RTC->ICSR, RTC_ICSR_INITF) == 0U)
 8001d8a:	68d2      	ldr	r2, [r2, #12]
 8001d8c:	0652      	lsls	r2, r2, #25
 8001d8e:	d51a      	bpl.n	8001dc6 <HAL_RTCEx_SetWakeUpTimer+0x72>
      }
    }
  }

  /* Clear the Wakeup Timer clock source bits in CR register */
  hrtc->Instance->CR &= (uint32_t)~RTC_CR_WUCKSEL;
 8001d90:	2107      	movs	r1, #7
 8001d92:	699a      	ldr	r2, [r3, #24]
  hrtc->State = HAL_RTC_STATE_READY;

  /* Process Unlocked */
  __HAL_UNLOCK(hrtc);

  return HAL_OK;
 8001d94:	2000      	movs	r0, #0
  hrtc->Instance->CR &= (uint32_t)~RTC_CR_WUCKSEL;
 8001d96:	438a      	bics	r2, r1
 8001d98:	619a      	str	r2, [r3, #24]
  hrtc->Instance->CR |= (uint32_t)WakeUpClock;
 8001d9a:	699a      	ldr	r2, [r3, #24]
 8001d9c:	433a      	orrs	r2, r7
 8001d9e:	619a      	str	r2, [r3, #24]
  __HAL_RTC_WAKEUPTIMER_ENABLE(hrtc);
 8001da0:	2280      	movs	r2, #128	@ 0x80
  hrtc->Instance->WUTR = (uint32_t)WakeUpCounter;
 8001da2:	615e      	str	r6, [r3, #20]
  __HAL_RTC_WAKEUPTIMER_ENABLE(hrtc);
 8001da4:	6999      	ldr	r1, [r3, #24]
 8001da6:	00d2      	lsls	r2, r2, #3
 8001da8:	430a      	orrs	r2, r1
 8001daa:	619a      	str	r2, [r3, #24]
  __HAL_RTC_WRITEPROTECTION_ENABLE(hrtc);
 8001dac:	22ff      	movs	r2, #255	@ 0xff
 8001dae:	625a      	str	r2, [r3, #36]	@ 0x24
  hrtc->State = HAL_RTC_STATE_READY;
 8001db0:	2329      	movs	r3, #41	@ 0x29
 8001db2:	3afe      	subs	r2, #254	@ 0xfe
 8001db4:	54e2      	strb	r2, [r4, r3]
  __HAL_UNLOCK(hrtc);
 8001db6:	2200      	movs	r2, #0
 8001db8:	3b01      	subs	r3, #1
 8001dba:	54e2      	strb	r2, [r4, r3]
}
 8001dbc:	bce0      	pop	{r5, r6, r7}
 8001dbe:	46ba      	mov	sl, r7
 8001dc0:	46b1      	mov	r9, r6
 8001dc2:	46a8      	mov	r8, r5
 8001dc4:	bdf0      	pop	{r4, r5, r6, r7, pc}
    tickstart = HAL_GetTick();
 8001dc6:	f7fe ffef 	bl	8000da8 <HAL_GetTick>
      if((HAL_GetTick() - tickstart ) > RTC_TIMEOUT_VALUE)
 8001dca:	23fa      	movs	r3, #250	@ 0xfa
 8001dcc:	009b      	lsls	r3, r3, #2
    tickstart = HAL_GetTick();
 8001dce:	4680      	mov	r8, r0
    while(__HAL_RTC_WAKEUPTIMER_GET_FLAG(hrtc, RTC_FLAG_WUTWF) == 0U)
 8001dd0:	2504      	movs	r5, #4
      if((HAL_GetTick() - tickstart ) > RTC_TIMEOUT_VALUE)
 8001dd2:	469a      	mov	sl, r3
    while(__HAL_RTC_WAKEUPTIMER_GET_FLAG(hrtc, RTC_FLAG_WUTWF) == 0U)
 8001dd4:	0029      	movs	r1, r5
 8001dd6:	6823      	ldr	r3, [r4, #0]
 8001dd8:	68da      	ldr	r2, [r3, #12]
 8001dda:	4011      	ands	r1, r2
 8001ddc:	4689      	mov	r9, r1
 8001dde:	4215      	tst	r5, r2
 8001de0:	d1d6      	bne.n	8001d90 <HAL_RTCEx_SetWakeUpTimer+0x3c>
      if((HAL_GetTick() - tickstart ) > RTC_TIMEOUT_VALUE)
 8001de2:	f7fe ffe1 	bl	8000da8 <HAL_GetTick>
 8001de6:	4643      	mov	r3, r8
 8001de8:	1ac0      	subs	r0, r0, r3
 8001dea:	4550      	cmp	r0, sl
 8001dec:	d9f2      	bls.n	8001dd4 <HAL_RTCEx_SetWakeUpTimer+0x80>
        __HAL_RTC_WRITEPROTECTION_ENABLE(hrtc);
 8001dee:	22ff      	movs	r2, #255	@ 0xff
 8001df0:	6823      	ldr	r3, [r4, #0]
        return HAL_TIMEOUT;
 8001df2:	2003      	movs	r0, #3
        __HAL_RTC_WRITEPROTECTION_ENABLE(hrtc);
 8001df4:	625a      	str	r2, [r3, #36]	@ 0x24
        hrtc->State = HAL_RTC_STATE_TIMEOUT;
 8001df6:	2329      	movs	r3, #41	@ 0x29
 8001df8:	3afc      	subs	r2, #252	@ 0xfc
 8001dfa:	54e2      	strb	r2, [r4, r3]
        __HAL_UNLOCK(hrtc);
 8001dfc:	464a      	mov	r2, r9
 8001dfe:	3b01      	subs	r3, #1
 8001e00:	54e2      	strb	r2, [r4, r3]
        return HAL_TIMEOUT;
 8001e02:	e7db      	b.n	8001dbc <HAL_RTCEx_SetWakeUpTimer+0x68>
  __HAL_LOCK(hrtc);
 8001e04:	2002      	movs	r0, #2
 8001e06:	e7d9      	b.n	8001dbc <HAL_RTCEx_SetWakeUpTimer+0x68>
 8001e08:	40002800 	.word	0x40002800
 8001e0c:	fffffbff 	.word	0xfffffbff

08001e10 <SPI_WaitFifoStateUntilTimeout.constprop.0>:
  * @param  State Fifo state to check
  * @param  Timeout Timeout duration
  * @param  Tickstart tick start value
  * @retval HAL status
  */
static HAL_StatusTypeDef SPI_WaitFifoStateUntilTimeout(SPI_HandleTypeDef *hspi, uint32_t Fifo, uint32_t State,
 8001e10:	b5f0      	push	{r4, r5, r6, r7, lr}
 8001e12:	46ce      	mov	lr, r9
 8001e14:	4647      	mov	r7, r8
 8001e16:	b580      	push	{r7, lr}
 8001e18:	b083      	sub	sp, #12
{
  __IO uint32_t count;
  uint32_t tmp_timeout;
  uint32_t tmp_tickstart;
  __IO uint8_t  *ptmpreg8;
  __IO uint8_t  tmpreg8 = 0;
 8001e1a:	466b      	mov	r3, sp
 8001e1c:	1cdc      	adds	r4, r3, #3
 8001e1e:	2300      	movs	r3, #0
static HAL_StatusTypeDef SPI_WaitFifoStateUntilTimeout(SPI_HandleTypeDef *hspi, uint32_t Fifo, uint32_t State,
 8001e20:	0016      	movs	r6, r2
 8001e22:	000f      	movs	r7, r1
  __IO uint8_t  tmpreg8 = 0;
 8001e24:	7023      	strb	r3, [r4, #0]
static HAL_StatusTypeDef SPI_WaitFifoStateUntilTimeout(SPI_HandleTypeDef *hspi, uint32_t Fifo, uint32_t State,
 8001e26:	4680      	mov	r8, r0

  /* Adjust Timeout value  in case of end of transfer */
  tmp_timeout = Timeout - (HAL_GetTick() - Tickstart);
 8001e28:	f7fe ffbe 	bl	8000da8 <HAL_GetTick>
 8001e2c:	19f6      	adds	r6, r6, r7
 8001e2e:	1a36      	subs	r6, r6, r0
  tmp_tickstart = HAL_GetTick();
 8001e30:	f7fe ffba 	bl	8000da8 <HAL_GetTick>

  /* Initialize the 8bit temporary pointer */
  ptmpreg8 = (__IO uint8_t *)&hspi->Instance->DR;
 8001e34:	4643      	mov	r3, r8
 8001e36:	681d      	ldr	r5, [r3, #0]

  /* Calculate Timeout based on a software loop to avoid blocking issue if Systick is disabled */
  count = tmp_timeout * ((SystemCoreClock * 35U) >> 20U);
 8001e38:	4b35      	ldr	r3, [pc, #212]	@ (8001f10 <SPI_WaitFifoStateUntilTimeout.constprop.0+0x100>)
  tmp_tickstart = HAL_GetTick();
 8001e3a:	4681      	mov	r9, r0
  count = tmp_timeout * ((SystemCoreClock * 35U) >> 20U);
 8001e3c:	681b      	ldr	r3, [r3, #0]
 8001e3e:	009a      	lsls	r2, r3, #2
 8001e40:	18d2      	adds	r2, r2, r3
 8001e42:	00d3      	lsls	r3, r2, #3
 8001e44:	1a9b      	subs	r3, r3, r2
 8001e46:	0d1b      	lsrs	r3, r3, #20
 8001e48:	4373      	muls	r3, r6
 8001e4a:	9301      	str	r3, [sp, #4]

  while ((hspi->Instance->SR & Fifo) != State)
 8001e4c:	3701      	adds	r7, #1
 8001e4e:	d111      	bne.n	8001e74 <SPI_WaitFifoStateUntilTimeout.constprop.0+0x64>
 8001e50:	22c0      	movs	r2, #192	@ 0xc0
 8001e52:	68ab      	ldr	r3, [r5, #8]
 8001e54:	00d2      	lsls	r2, r2, #3
 8001e56:	4213      	tst	r3, r2
 8001e58:	d006      	beq.n	8001e68 <SPI_WaitFifoStateUntilTimeout.constprop.0+0x58>
  {
    if ((Fifo == SPI_SR_FRLVL) && (State == SPI_FRLVL_EMPTY))
    {
      /* Flush Data Register by a blank read */
      tmpreg8 = *ptmpreg8;
 8001e5a:	7b2b      	ldrb	r3, [r5, #12]
 8001e5c:	b2db      	uxtb	r3, r3
 8001e5e:	7023      	strb	r3, [r4, #0]
      /* To avoid GCC warning */
      UNUSED(tmpreg8);
 8001e60:	7823      	ldrb	r3, [r4, #0]
  while ((hspi->Instance->SR & Fifo) != State)
 8001e62:	68ab      	ldr	r3, [r5, #8]
 8001e64:	4213      	tst	r3, r2
 8001e66:	d1f8      	bne.n	8001e5a <SPI_WaitFifoStateUntilTimeout.constprop.0+0x4a>
      }
      count--;
    }
  }

  return HAL_OK;
 8001e68:	2000      	movs	r0, #0
}
 8001e6a:	b003      	add	sp, #12
 8001e6c:	bcc0      	pop	{r6, r7}
 8001e6e:	46b9      	mov	r9, r7
 8001e70:	46b0      	mov	r8, r6
 8001e72:	bdf0      	pop	{r4, r5, r6, r7, pc}
  while ((hspi->Instance->SR & Fifo) != State)
 8001e74:	27c0      	movs	r7, #192	@ 0xc0
  count = tmp_timeout * ((SystemCoreClock * 35U) >> 20U);
 8001e76:	002b      	movs	r3, r5
  while ((hspi->Instance->SR & Fifo) != State)
 8001e78:	00ff      	lsls	r7, r7, #3
 8001e7a:	e013      	b.n	8001ea4 <SPI_WaitFifoStateUntilTimeout.constprop.0+0x94>
      tmpreg8 = *ptmpreg8;
 8001e7c:	7b2b      	ldrb	r3, [r5, #12]
 8001e7e:	b2db      	uxtb	r3, r3
 8001e80:	7023      	strb	r3, [r4, #0]
      UNUSED(tmpreg8);
 8001e82:	7823      	ldrb	r3, [r4, #0]
      if (((HAL_GetTick() - tmp_tickstart) >= tmp_timeout) || (tmp_timeout == 0U))
 8001e84:	f7fe ff90 	bl	8000da8 <HAL_GetTick>
 8001e88:	464b      	mov	r3, r9
 8001e8a:	1ac0      	subs	r0, r0, r3
 8001e8c:	42b0      	cmp	r0, r6
 8001e8e:	d20d      	bcs.n	8001eac <SPI_WaitFifoStateUntilTimeout.constprop.0+0x9c>
      if (count == 0U)
 8001e90:	9b01      	ldr	r3, [sp, #4]
        tmp_timeout = 0U;
 8001e92:	1e5a      	subs	r2, r3, #1
 8001e94:	4193      	sbcs	r3, r2
 8001e96:	425b      	negs	r3, r3
 8001e98:	401e      	ands	r6, r3
      count--;
 8001e9a:	9b01      	ldr	r3, [sp, #4]
 8001e9c:	3b01      	subs	r3, #1
 8001e9e:	9301      	str	r3, [sp, #4]
        __HAL_SPI_DISABLE_IT(hspi, (SPI_IT_TXE | SPI_IT_RXNE | SPI_IT_ERR));
 8001ea0:	4643      	mov	r3, r8
 8001ea2:	681b      	ldr	r3, [r3, #0]
  while ((hspi->Instance->SR & Fifo) != State)
 8001ea4:	689b      	ldr	r3, [r3, #8]
 8001ea6:	423b      	tst	r3, r7
 8001ea8:	d1e8      	bne.n	8001e7c <SPI_WaitFifoStateUntilTimeout.constprop.0+0x6c>
 8001eaa:	e7dd      	b.n	8001e68 <SPI_WaitFifoStateUntilTimeout.constprop.0+0x58>
        __HAL_SPI_DISABLE_IT(hspi, (SPI_IT_TXE | SPI_IT_RXNE | SPI_IT_ERR));
 8001eac:	4643      	mov	r3, r8
 8001eae:	21e0      	movs	r1, #224	@ 0xe0
 8001eb0:	681b      	ldr	r3, [r3, #0]
 8001eb2:	685a      	ldr	r2, [r3, #4]
 8001eb4:	438a      	bics	r2, r1
        if ((hspi->Init.Mode == SPI_MODE_MASTER) && ((hspi->Init.Direction == SPI_DIRECTION_1LINE)
 8001eb6:	4641      	mov	r1, r8
        __HAL_SPI_DISABLE_IT(hspi, (SPI_IT_TXE | SPI_IT_RXNE | SPI_IT_ERR));
 8001eb8:	605a      	str	r2, [r3, #4]
        if ((hspi->Init.Mode == SPI_MODE_MASTER) && ((hspi->Init.Direction == SPI_DIRECTION_1LINE)
 8001eba:	2282      	movs	r2, #130	@ 0x82
 8001ebc:	6849      	ldr	r1, [r1, #4]
 8001ebe:	0052      	lsls	r2, r2, #1
 8001ec0:	4291      	cmp	r1, r2
 8001ec2:	d015      	beq.n	8001ef0 <SPI_WaitFifoStateUntilTimeout.constprop.0+0xe0>
        if (hspi->Init.CRCCalculation == SPI_CRCCALCULATION_ENABLE)
 8001ec4:	4642      	mov	r2, r8
 8001ec6:	2180      	movs	r1, #128	@ 0x80
 8001ec8:	6a92      	ldr	r2, [r2, #40]	@ 0x28
 8001eca:	0189      	lsls	r1, r1, #6
 8001ecc:	428a      	cmp	r2, r1
 8001ece:	d106      	bne.n	8001ede <SPI_WaitFifoStateUntilTimeout.constprop.0+0xce>
          SPI_RESET_CRC(hspi);
 8001ed0:	6819      	ldr	r1, [r3, #0]
 8001ed2:	4810      	ldr	r0, [pc, #64]	@ (8001f14 <SPI_WaitFifoStateUntilTimeout.constprop.0+0x104>)
 8001ed4:	4001      	ands	r1, r0
 8001ed6:	6019      	str	r1, [r3, #0]
 8001ed8:	6819      	ldr	r1, [r3, #0]
 8001eda:	430a      	orrs	r2, r1
 8001edc:	601a      	str	r2, [r3, #0]
        hspi->State = HAL_SPI_STATE_READY;
 8001ede:	235d      	movs	r3, #93	@ 0x5d
 8001ee0:	2201      	movs	r2, #1
 8001ee2:	4641      	mov	r1, r8
 8001ee4:	54ca      	strb	r2, [r1, r3]
        __HAL_UNLOCK(hspi);
 8001ee6:	2200      	movs	r2, #0
 8001ee8:	3b01      	subs	r3, #1
        return HAL_TIMEOUT;
 8001eea:	2003      	movs	r0, #3
        __HAL_UNLOCK(hspi);
 8001eec:	54ca      	strb	r2, [r1, r3]
        return HAL_TIMEOUT;
 8001eee:	e7bc      	b.n	8001e6a <SPI_WaitFifoStateUntilTimeout.constprop.0+0x5a>
        if ((hspi->Init.Mode == SPI_MODE_MASTER) && ((hspi->Init.Direction == SPI_DIRECTION_1LINE)
 8001ef0:	4642      	mov	r2, r8
 8001ef2:	2180      	movs	r1, #128	@ 0x80
 8001ef4:	6892      	ldr	r2, [r2, #8]
 8001ef6:	0209      	lsls	r1, r1, #8
 8001ef8:	428a      	cmp	r2, r1
 8001efa:	d003      	beq.n	8001f04 <SPI_WaitFifoStateUntilTimeout.constprop.0+0xf4>
                                                     || (hspi->Init.Direction == SPI_DIRECTION_2LINES_RXONLY)))
 8001efc:	2180      	movs	r1, #128	@ 0x80
 8001efe:	00c9      	lsls	r1, r1, #3
 8001f00:	428a      	cmp	r2, r1
 8001f02:	d1df      	bne.n	8001ec4 <SPI_WaitFifoStateUntilTimeout.constprop.0+0xb4>
          __HAL_SPI_DISABLE(hspi);
 8001f04:	2140      	movs	r1, #64	@ 0x40
 8001f06:	681a      	ldr	r2, [r3, #0]
 8001f08:	438a      	bics	r2, r1
 8001f0a:	601a      	str	r2, [r3, #0]
 8001f0c:	e7da      	b.n	8001ec4 <SPI_WaitFifoStateUntilTimeout.constprop.0+0xb4>
 8001f0e:	46c0      	nop			@ (mov r8, r8)
 8001f10:	20000668 	.word	0x20000668
 8001f14:	ffffdfff 	.word	0xffffdfff

08001f18 <SPI_EndRxTxTransaction>:
  * @param  Timeout Timeout duration
  * @param  Tickstart tick start value
  * @retval HAL status
  */
static HAL_StatusTypeDef SPI_EndRxTxTransaction(SPI_HandleTypeDef *hspi, uint32_t Timeout, uint32_t Tickstart)
{
 8001f18:	b5f0      	push	{r4, r5, r6, r7, lr}
 8001f1a:	46de      	mov	lr, fp
 8001f1c:	4657      	mov	r7, sl
 8001f1e:	464e      	mov	r6, r9
 8001f20:	4645      	mov	r5, r8
 8001f22:	b5e0      	push	{r5, r6, r7, lr}
 8001f24:	b085      	sub	sp, #20
  __IO uint8_t  tmpreg8 = 0;
 8001f26:	466b      	mov	r3, sp
{
 8001f28:	0017      	movs	r7, r2
  __IO uint8_t  tmpreg8 = 0;
 8001f2a:	2200      	movs	r2, #0
{
 8001f2c:	000e      	movs	r6, r1
  __IO uint8_t  tmpreg8 = 0;
 8001f2e:	71da      	strb	r2, [r3, #7]
{
 8001f30:	0004      	movs	r4, r0
  tmp_timeout = Timeout - (HAL_GetTick() - Tickstart);
 8001f32:	f7fe ff39 	bl	8000da8 <HAL_GetTick>
 8001f36:	19f3      	adds	r3, r6, r7
 8001f38:	1a1d      	subs	r5, r3, r0
 8001f3a:	469a      	mov	sl, r3
  tmp_tickstart = HAL_GetTick();
 8001f3c:	f7fe ff34 	bl	8000da8 <HAL_GetTick>
  while ((hspi->Instance->SR & Fifo) != State)
 8001f40:	21c0      	movs	r1, #192	@ 0xc0
  count = tmp_timeout * ((SystemCoreClock * 35U) >> 20U);
 8001f42:	4b4c      	ldr	r3, [pc, #304]	@ (8002074 <SPI_EndRxTxTransaction+0x15c>)
  tmp_tickstart = HAL_GetTick();
 8001f44:	4680      	mov	r8, r0
  count = tmp_timeout * ((SystemCoreClock * 35U) >> 20U);
 8001f46:	4699      	mov	r9, r3
 8001f48:	681b      	ldr	r3, [r3, #0]
  while ((hspi->Instance->SR & Fifo) != State)
 8001f4a:	0149      	lsls	r1, r1, #5
  count = tmp_timeout * ((SystemCoreClock * 35U) >> 20U);
 8001f4c:	009a      	lsls	r2, r3, #2
 8001f4e:	18d2      	adds	r2, r2, r3
 8001f50:	00d3      	lsls	r3, r2, #3
 8001f52:	1a9b      	subs	r3, r3, r2
 8001f54:	0d1b      	lsrs	r3, r3, #20
 8001f56:	436b      	muls	r3, r5
  while ((hspi->Instance->SR & Fifo) != State)
 8001f58:	6822      	ldr	r2, [r4, #0]
  count = tmp_timeout * ((SystemCoreClock * 35U) >> 20U);
 8001f5a:	9302      	str	r3, [sp, #8]
  while ((hspi->Instance->SR & Fifo) != State)
 8001f5c:	1c73      	adds	r3, r6, #1
 8001f5e:	d000      	beq.n	8001f62 <SPI_EndRxTxTransaction+0x4a>
 8001f60:	e070      	b.n	8002044 <SPI_EndRxTxTransaction+0x12c>
 8001f62:	6893      	ldr	r3, [r2, #8]
 8001f64:	420b      	tst	r3, r1
 8001f66:	d1fc      	bne.n	8001f62 <SPI_EndRxTxTransaction+0x4a>
  tmp_timeout   = Timeout - (HAL_GetTick() - Tickstart);
 8001f68:	f7fe ff1e 	bl	8000da8 <HAL_GetTick>
 8001f6c:	4653      	mov	r3, sl
 8001f6e:	1a1d      	subs	r5, r3, r0
  tmp_tickstart = HAL_GetTick();
 8001f70:	f7fe ff1a 	bl	8000da8 <HAL_GetTick>
  count = tmp_timeout * ((SystemCoreClock * 32U) >> 20U);
 8001f74:	464b      	mov	r3, r9
 8001f76:	681b      	ldr	r3, [r3, #0]
  tmp_tickstart = HAL_GetTick();
 8001f78:	4680      	mov	r8, r0
  count = tmp_timeout * ((SystemCoreClock * 32U) >> 20U);
 8001f7a:	015b      	lsls	r3, r3, #5
 8001f7c:	0d1b      	lsrs	r3, r3, #20
 8001f7e:	436b      	muls	r3, r5
 8001f80:	9303      	str	r3, [sp, #12]
  while ((__HAL_SPI_GET_FLAG(hspi, Flag) ? SET : RESET) != State)
 8001f82:	2380      	movs	r3, #128	@ 0x80
 8001f84:	6822      	ldr	r2, [r4, #0]
 8001f86:	4699      	mov	r9, r3
 8001f88:	1c73      	adds	r3, r6, #1
 8001f8a:	d120      	bne.n	8001fce <SPI_EndRxTxTransaction+0xb6>
 8001f8c:	2180      	movs	r1, #128	@ 0x80
 8001f8e:	6893      	ldr	r3, [r2, #8]
 8001f90:	4219      	tst	r1, r3
 8001f92:	d1fc      	bne.n	8001f8e <SPI_EndRxTxTransaction+0x76>
    SET_BIT(hspi->ErrorCode, HAL_SPI_ERROR_FLAG);
    return HAL_TIMEOUT;
  }

  /* Control if the RX fifo is empty */
  if (SPI_WaitFifoStateUntilTimeout(hspi, SPI_FLAG_FRLVL, SPI_FRLVL_EMPTY, Timeout, Tickstart) != HAL_OK)
 8001f94:	003a      	movs	r2, r7
 8001f96:	0031      	movs	r1, r6
 8001f98:	0020      	movs	r0, r4
 8001f9a:	f7ff ff39 	bl	8001e10 <SPI_WaitFifoStateUntilTimeout.constprop.0>
 8001f9e:	2800      	cmp	r0, #0
 8001fa0:	d11a      	bne.n	8001fd8 <SPI_EndRxTxTransaction+0xc0>
    SET_BIT(hspi->ErrorCode, HAL_SPI_ERROR_FLAG);
    return HAL_TIMEOUT;
  }

  return HAL_OK;
}
 8001fa2:	b005      	add	sp, #20
 8001fa4:	bcf0      	pop	{r4, r5, r6, r7}
 8001fa6:	46bb      	mov	fp, r7
 8001fa8:	46b2      	mov	sl, r6
 8001faa:	46a9      	mov	r9, r5
 8001fac:	46a0      	mov	r8, r4
 8001fae:	bdf0      	pop	{r4, r5, r6, r7, pc}
      if (((HAL_GetTick() - tmp_tickstart) >= tmp_timeout) || (tmp_timeout == 0U))
 8001fb0:	f7fe fefa 	bl	8000da8 <HAL_GetTick>
 8001fb4:	4643      	mov	r3, r8
 8001fb6:	1ac0      	subs	r0, r0, r3
 8001fb8:	4285      	cmp	r5, r0
 8001fba:	d913      	bls.n	8001fe4 <SPI_EndRxTxTransaction+0xcc>
      if (count == 0U)
 8001fbc:	9b03      	ldr	r3, [sp, #12]
        tmp_timeout = 0U;
 8001fbe:	1e5a      	subs	r2, r3, #1
 8001fc0:	4193      	sbcs	r3, r2
 8001fc2:	425b      	negs	r3, r3
 8001fc4:	401d      	ands	r5, r3
      count--;
 8001fc6:	9b03      	ldr	r3, [sp, #12]
  while ((__HAL_SPI_GET_FLAG(hspi, Flag) ? SET : RESET) != State)
 8001fc8:	6822      	ldr	r2, [r4, #0]
      count--;
 8001fca:	3b01      	subs	r3, #1
 8001fcc:	9303      	str	r3, [sp, #12]
  while ((__HAL_SPI_GET_FLAG(hspi, Flag) ? SET : RESET) != State)
 8001fce:	6893      	ldr	r3, [r2, #8]
 8001fd0:	464a      	mov	r2, r9
 8001fd2:	421a      	tst	r2, r3
 8001fd4:	d1ec      	bne.n	8001fb0 <SPI_EndRxTxTransaction+0x98>
 8001fd6:	e7dd      	b.n	8001f94 <SPI_EndRxTxTransaction+0x7c>
    SET_BIT(hspi->ErrorCode, HAL_SPI_ERROR_FLAG);
 8001fd8:	2220      	movs	r2, #32
 8001fda:	6e23      	ldr	r3, [r4, #96]	@ 0x60
    return HAL_TIMEOUT;
 8001fdc:	2003      	movs	r0, #3
    SET_BIT(hspi->ErrorCode, HAL_SPI_ERROR_FLAG);
 8001fde:	4313      	orrs	r3, r2
 8001fe0:	6623      	str	r3, [r4, #96]	@ 0x60
    return HAL_TIMEOUT;
 8001fe2:	e7de      	b.n	8001fa2 <SPI_EndRxTxTransaction+0x8a>
        __HAL_SPI_DISABLE_IT(hspi, (SPI_IT_TXE | SPI_IT_RXNE | SPI_IT_ERR));
 8001fe4:	21e0      	movs	r1, #224	@ 0xe0
 8001fe6:	6823      	ldr	r3, [r4, #0]
 8001fe8:	685a      	ldr	r2, [r3, #4]
 8001fea:	438a      	bics	r2, r1
 8001fec:	605a      	str	r2, [r3, #4]
        if ((hspi->Init.Mode == SPI_MODE_MASTER) && ((hspi->Init.Direction == SPI_DIRECTION_1LINE)
 8001fee:	2282      	movs	r2, #130	@ 0x82
 8001ff0:	6861      	ldr	r1, [r4, #4]
 8001ff2:	0052      	lsls	r2, r2, #1
 8001ff4:	4291      	cmp	r1, r2
 8001ff6:	d017      	beq.n	8002028 <SPI_EndRxTxTransaction+0x110>
        if (hspi->Init.CRCCalculation == SPI_CRCCALCULATION_ENABLE)
 8001ff8:	2180      	movs	r1, #128	@ 0x80
 8001ffa:	6aa2      	ldr	r2, [r4, #40]	@ 0x28
 8001ffc:	0189      	lsls	r1, r1, #6
 8001ffe:	428a      	cmp	r2, r1
 8002000:	d106      	bne.n	8002010 <SPI_EndRxTxTransaction+0xf8>
          SPI_RESET_CRC(hspi);
 8002002:	6819      	ldr	r1, [r3, #0]
 8002004:	481c      	ldr	r0, [pc, #112]	@ (8002078 <SPI_EndRxTxTransaction+0x160>)
 8002006:	4001      	ands	r1, r0
 8002008:	6019      	str	r1, [r3, #0]
 800200a:	6819      	ldr	r1, [r3, #0]
 800200c:	430a      	orrs	r2, r1
 800200e:	601a      	str	r2, [r3, #0]
        hspi->State = HAL_SPI_STATE_READY;
 8002010:	235d      	movs	r3, #93	@ 0x5d
 8002012:	2201      	movs	r2, #1
 8002014:	54e2      	strb	r2, [r4, r3]
        __HAL_UNLOCK(hspi);
 8002016:	2200      	movs	r2, #0
 8002018:	3b01      	subs	r3, #1
 800201a:	54e2      	strb	r2, [r4, r3]
    SET_BIT(hspi->ErrorCode, HAL_SPI_ERROR_FLAG);
 800201c:	6e23      	ldr	r3, [r4, #96]	@ 0x60
 800201e:	3220      	adds	r2, #32
 8002020:	4313      	orrs	r3, r2
    return HAL_TIMEOUT;
 8002022:	2003      	movs	r0, #3
    SET_BIT(hspi->ErrorCode, HAL_SPI_ERROR_FLAG);
 8002024:	6623      	str	r3, [r4, #96]	@ 0x60
    return HAL_TIMEOUT;
 8002026:	e7bc      	b.n	8001fa2 <SPI_EndRxTxTransaction+0x8a>
        if ((hspi->Init.Mode == SPI_MODE_MASTER) && ((hspi->Init.Direction == SPI_DIRECTION_1LINE)
 8002028:	2180      	movs	r1, #128	@ 0x80
 800202a:	68a2      	ldr	r2, [r4, #8]
 800202c:	0209      	lsls	r1, r1, #8
 800202e:	428a      	cmp	r2, r1
 8002030:	d003      	beq.n	800203a <SPI_EndRxTxTransaction+0x122>
                                                     || (hspi->Init.Direction == SPI_DIRECTION_2LINES_RXONLY)))
 8002032:	2180      	movs	r1, #128	@ 0x80
 8002034:	00c9      	lsls	r1, r1, #3
 8002036:	428a      	cmp	r2, r1
 8002038:	d1de      	bne.n	8001ff8 <SPI_EndRxTxTransaction+0xe0>
          __HAL_SPI_DISABLE(hspi);
 800203a:	2140      	movs	r1, #64	@ 0x40
 800203c:	681a      	ldr	r2, [r3, #0]
 800203e:	438a      	bics	r2, r1
 8002040:	601a      	str	r2, [r3, #0]
 8002042:	e7d9      	b.n	8001ff8 <SPI_EndRxTxTransaction+0xe0>
  while ((hspi->Instance->SR & Fifo) != State)
 8002044:	23c0      	movs	r3, #192	@ 0xc0
 8002046:	015b      	lsls	r3, r3, #5
 8002048:	469b      	mov	fp, r3
 800204a:	e00e      	b.n	800206a <SPI_EndRxTxTransaction+0x152>
      if (((HAL_GetTick() - tmp_tickstart) >= tmp_timeout) || (tmp_timeout == 0U))
 800204c:	f7fe feac 	bl	8000da8 <HAL_GetTick>
 8002050:	4643      	mov	r3, r8
 8002052:	1ac0      	subs	r0, r0, r3
 8002054:	4285      	cmp	r5, r0
 8002056:	d9c5      	bls.n	8001fe4 <SPI_EndRxTxTransaction+0xcc>
      if (count == 0U)
 8002058:	9b02      	ldr	r3, [sp, #8]
        tmp_timeout = 0U;
 800205a:	1e5a      	subs	r2, r3, #1
 800205c:	4193      	sbcs	r3, r2
 800205e:	425b      	negs	r3, r3
 8002060:	401d      	ands	r5, r3
      count--;
 8002062:	9b02      	ldr	r3, [sp, #8]
  while ((hspi->Instance->SR & Fifo) != State)
 8002064:	6822      	ldr	r2, [r4, #0]
      count--;
 8002066:	3b01      	subs	r3, #1
 8002068:	9302      	str	r3, [sp, #8]
  while ((hspi->Instance->SR & Fifo) != State)
 800206a:	6893      	ldr	r3, [r2, #8]
 800206c:	465a      	mov	r2, fp
 800206e:	4213      	tst	r3, r2
 8002070:	d1ec      	bne.n	800204c <SPI_EndRxTxTransaction+0x134>
 8002072:	e779      	b.n	8001f68 <SPI_EndRxTxTransaction+0x50>
 8002074:	20000668 	.word	0x20000668
 8002078:	ffffdfff 	.word	0xffffdfff

0800207c <HAL_SPI_Init>:
{
 800207c:	b5f8      	push	{r3, r4, r5, r6, r7, lr}
 800207e:	46de      	mov	lr, fp
 8002080:	4657      	mov	r7, sl
 8002082:	464e      	mov	r6, r9
 8002084:	4645      	mov	r5, r8
 8002086:	0004      	movs	r4, r0
 8002088:	b5e0      	push	{r5, r6, r7, lr}
  if (hspi == NULL)
 800208a:	2800      	cmp	r0, #0
 800208c:	d100      	bne.n	8002090 <HAL_SPI_Init+0x14>
 800208e:	e093      	b.n	80021b8 <HAL_SPI_Init+0x13c>
  if (hspi->Init.TIMode == SPI_TIMODE_DISABLE)
 8002090:	6a45      	ldr	r5, [r0, #36]	@ 0x24
 8002092:	2d00      	cmp	r5, #0
 8002094:	d069      	beq.n	800216a <HAL_SPI_Init+0xee>
    hspi->Init.CLKPolarity = SPI_POLARITY_LOW;
 8002096:	2300      	movs	r3, #0
 8002098:	6103      	str	r3, [r0, #16]
    hspi->Init.CLKPhase    = SPI_PHASE_1EDGE;
 800209a:	6143      	str	r3, [r0, #20]
  hspi->Init.CRCCalculation = SPI_CRCCALCULATION_DISABLE;
 800209c:	2300      	movs	r3, #0
 800209e:	62a3      	str	r3, [r4, #40]	@ 0x28
  if (hspi->State == HAL_SPI_STATE_RESET)
 80020a0:	335d      	adds	r3, #93	@ 0x5d
 80020a2:	5ce3      	ldrb	r3, [r4, r3]
 80020a4:	b2da      	uxtb	r2, r3
 80020a6:	2b00      	cmp	r3, #0
 80020a8:	d06c      	beq.n	8002184 <HAL_SPI_Init+0x108>
  hspi->State = HAL_SPI_STATE_BUSY;
 80020aa:	235d      	movs	r3, #93	@ 0x5d
 80020ac:	2202      	movs	r2, #2
  __HAL_SPI_DISABLE(hspi);
 80020ae:	2140      	movs	r1, #64	@ 0x40
  hspi->State = HAL_SPI_STATE_BUSY;
 80020b0:	54e2      	strb	r2, [r4, r3]
  __HAL_SPI_DISABLE(hspi);
 80020b2:	6822      	ldr	r2, [r4, #0]
 80020b4:	6813      	ldr	r3, [r2, #0]
 80020b6:	438b      	bics	r3, r1
 80020b8:	6013      	str	r3, [r2, #0]
  if (hspi->Init.DataSize > SPI_DATASIZE_8BIT)
 80020ba:	23e0      	movs	r3, #224	@ 0xe0
 80020bc:	68e1      	ldr	r1, [r4, #12]
 80020be:	00db      	lsls	r3, r3, #3
 80020c0:	4299      	cmp	r1, r3
 80020c2:	d866      	bhi.n	8002192 <HAL_SPI_Init+0x116>
  if ((hspi->Init.DataSize != SPI_DATASIZE_16BIT) && (hspi->Init.DataSize != SPI_DATASIZE_8BIT))
 80020c4:	d000      	beq.n	80020c8 <HAL_SPI_Init+0x4c>
 80020c6:	e070      	b.n	80021aa <HAL_SPI_Init+0x12e>
  WRITE_REG(hspi->Instance->CR1, ((hspi->Init.Mode & (SPI_CR1_MSTR | SPI_CR1_SSI)) |
 80020c8:	2380      	movs	r3, #128	@ 0x80
 80020ca:	6aa0      	ldr	r0, [r4, #40]	@ 0x28
 80020cc:	019b      	lsls	r3, r3, #6
 80020ce:	4018      	ands	r0, r3
    frxth = SPI_RXFIFO_THRESHOLD_QF;
 80020d0:	2380      	movs	r3, #128	@ 0x80
 80020d2:	015b      	lsls	r3, r3, #5
  WRITE_REG(hspi->Instance->CR1, ((hspi->Init.Mode & (SPI_CR1_MSTR | SPI_CR1_SSI)) |
 80020d4:	4684      	mov	ip, r0
    frxth = SPI_RXFIFO_THRESHOLD_QF;
 80020d6:	469b      	mov	fp, r3
  WRITE_REG(hspi->Instance->CR1, ((hspi->Init.Mode & (SPI_CR1_MSTR | SPI_CR1_SSI)) |
 80020d8:	2682      	movs	r6, #130	@ 0x82
 80020da:	2784      	movs	r7, #132	@ 0x84
 80020dc:	6863      	ldr	r3, [r4, #4]
 80020de:	0076      	lsls	r6, r6, #1
 80020e0:	4033      	ands	r3, r6
 80020e2:	68a6      	ldr	r6, [r4, #8]
 80020e4:	023f      	lsls	r7, r7, #8
 80020e6:	403e      	ands	r6, r7
 80020e8:	2702      	movs	r7, #2
 80020ea:	4333      	orrs	r3, r6
 80020ec:	6926      	ldr	r6, [r4, #16]
 80020ee:	69a0      	ldr	r0, [r4, #24]
 80020f0:	403e      	ands	r6, r7
 80020f2:	4333      	orrs	r3, r6
 80020f4:	2601      	movs	r6, #1
 80020f6:	6967      	ldr	r7, [r4, #20]
 80020f8:	46b2      	mov	sl, r6
 80020fa:	4037      	ands	r7, r6
 80020fc:	433b      	orrs	r3, r7
 80020fe:	2780      	movs	r7, #128	@ 0x80
 8002100:	00bf      	lsls	r7, r7, #2
 8002102:	4007      	ands	r7, r0
 8002104:	433b      	orrs	r3, r7
 8002106:	69e7      	ldr	r7, [r4, #28]
  WRITE_REG(hspi->Instance->CR2, (((hspi->Init.NSS >> 16U) & SPI_CR2_SSOE) |
 8002108:	0c00      	lsrs	r0, r0, #16
  WRITE_REG(hspi->Instance->CR1, ((hspi->Init.Mode & (SPI_CR1_MSTR | SPI_CR1_SSI)) |
 800210a:	46b8      	mov	r8, r7
 800210c:	2738      	movs	r7, #56	@ 0x38
 800210e:	46b9      	mov	r9, r7
 8002110:	4647      	mov	r7, r8
 8002112:	464e      	mov	r6, r9
 8002114:	4037      	ands	r7, r6
 8002116:	6a26      	ldr	r6, [r4, #32]
 8002118:	433b      	orrs	r3, r7
 800211a:	46b0      	mov	r8, r6
 800211c:	2680      	movs	r6, #128	@ 0x80
 800211e:	4647      	mov	r7, r8
 8002120:	4037      	ands	r7, r6
 8002122:	4666      	mov	r6, ip
 8002124:	433b      	orrs	r3, r7
 8002126:	4333      	orrs	r3, r6
  WRITE_REG(hspi->Instance->CR2, (((hspi->Init.NSS >> 16U) & SPI_CR2_SSOE) |
 8002128:	2608      	movs	r6, #8
  WRITE_REG(hspi->Instance->CR1, ((hspi->Init.Mode & (SPI_CR1_MSTR | SPI_CR1_SSI)) |
 800212a:	6013      	str	r3, [r2, #0]
  WRITE_REG(hspi->Instance->CR2, (((hspi->Init.NSS >> 16U) & SPI_CR2_SSOE) |
 800212c:	6b63      	ldr	r3, [r4, #52]	@ 0x34
 800212e:	4033      	ands	r3, r6
 8002130:	26f0      	movs	r6, #240	@ 0xf0
 8002132:	0136      	lsls	r6, r6, #4
 8002134:	4031      	ands	r1, r6
 8002136:	4319      	orrs	r1, r3
 8002138:	2304      	movs	r3, #4
 800213a:	4003      	ands	r3, r0
 800213c:	4319      	orrs	r1, r3
 800213e:	2310      	movs	r3, #16
 8002140:	402b      	ands	r3, r5
 8002142:	4319      	orrs	r1, r3
 8002144:	465b      	mov	r3, fp
 8002146:	4319      	orrs	r1, r3
 8002148:	6051      	str	r1, [r2, #4]
  CLEAR_BIT(hspi->Instance->I2SCFGR, SPI_I2SCFGR_I2SMOD);
 800214a:	69d3      	ldr	r3, [r2, #28]
 800214c:	491d      	ldr	r1, [pc, #116]	@ (80021c4 <HAL_SPI_Init+0x148>)
  return HAL_OK;
 800214e:	2000      	movs	r0, #0
  CLEAR_BIT(hspi->Instance->I2SCFGR, SPI_I2SCFGR_I2SMOD);
 8002150:	400b      	ands	r3, r1
 8002152:	61d3      	str	r3, [r2, #28]
  hspi->ErrorCode = HAL_SPI_ERROR_NONE;
 8002154:	2300      	movs	r3, #0
  hspi->State     = HAL_SPI_STATE_READY;
 8002156:	4652      	mov	r2, sl
  hspi->ErrorCode = HAL_SPI_ERROR_NONE;
 8002158:	6623      	str	r3, [r4, #96]	@ 0x60
  hspi->State     = HAL_SPI_STATE_READY;
 800215a:	335d      	adds	r3, #93	@ 0x5d
 800215c:	54e2      	strb	r2, [r4, r3]
}
 800215e:	bcf0      	pop	{r4, r5, r6, r7}
 8002160:	46bb      	mov	fp, r7
 8002162:	46b2      	mov	sl, r6
 8002164:	46a9      	mov	r9, r5
 8002166:	46a0      	mov	r8, r4
 8002168:	bdf8      	pop	{r3, r4, r5, r6, r7, pc}
    if (hspi->Init.Mode == SPI_MODE_MASTER)
 800216a:	2382      	movs	r3, #130	@ 0x82
 800216c:	6842      	ldr	r2, [r0, #4]
 800216e:	005b      	lsls	r3, r3, #1
 8002170:	429a      	cmp	r2, r3
 8002172:	d093      	beq.n	800209c <HAL_SPI_Init+0x20>
  hspi->Init.CRCCalculation = SPI_CRCCALCULATION_DISABLE;
 8002174:	2300      	movs	r3, #0
      hspi->Init.BaudRatePrescaler = SPI_BAUDRATEPRESCALER_2;
 8002176:	61c5      	str	r5, [r0, #28]
  hspi->Init.CRCCalculation = SPI_CRCCALCULATION_DISABLE;
 8002178:	62a3      	str	r3, [r4, #40]	@ 0x28
  if (hspi->State == HAL_SPI_STATE_RESET)
 800217a:	335d      	adds	r3, #93	@ 0x5d
 800217c:	5ce3      	ldrb	r3, [r4, r3]
 800217e:	b2da      	uxtb	r2, r3
 8002180:	2b00      	cmp	r3, #0
 8002182:	d192      	bne.n	80020aa <HAL_SPI_Init+0x2e>
    hspi->Lock = HAL_UNLOCKED;
 8002184:	335c      	adds	r3, #92	@ 0x5c
    HAL_SPI_MspInit(hspi);
 8002186:	0020      	movs	r0, r4
    hspi->Lock = HAL_UNLOCKED;
 8002188:	54e2      	strb	r2, [r4, r3]
    HAL_SPI_MspInit(hspi);
 800218a:	f7fe fc1b 	bl	80009c4 <HAL_SPI_MspInit>
  WRITE_REG(hspi->Instance->CR2, (((hspi->Init.NSS >> 16U) & SPI_CR2_SSOE) |
 800218e:	6a65      	ldr	r5, [r4, #36]	@ 0x24
 8002190:	e78b      	b.n	80020aa <HAL_SPI_Init+0x2e>
  if ((hspi->Init.DataSize != SPI_DATASIZE_16BIT) && (hspi->Init.DataSize != SPI_DATASIZE_8BIT))
 8002192:	23f0      	movs	r3, #240	@ 0xf0
 8002194:	011b      	lsls	r3, r3, #4
 8002196:	4299      	cmp	r1, r3
 8002198:	d110      	bne.n	80021bc <HAL_SPI_Init+0x140>
  WRITE_REG(hspi->Instance->CR1, ((hspi->Init.Mode & (SPI_CR1_MSTR | SPI_CR1_SSI)) |
 800219a:	2380      	movs	r3, #128	@ 0x80
 800219c:	6aa0      	ldr	r0, [r4, #40]	@ 0x28
 800219e:	019b      	lsls	r3, r3, #6
 80021a0:	4018      	ands	r0, r3
    frxth = SPI_RXFIFO_THRESHOLD_HF;
 80021a2:	2300      	movs	r3, #0
  WRITE_REG(hspi->Instance->CR1, ((hspi->Init.Mode & (SPI_CR1_MSTR | SPI_CR1_SSI)) |
 80021a4:	4684      	mov	ip, r0
    frxth = SPI_RXFIFO_THRESHOLD_HF;
 80021a6:	469b      	mov	fp, r3
 80021a8:	e796      	b.n	80020d8 <HAL_SPI_Init+0x5c>
    frxth = SPI_RXFIFO_THRESHOLD_QF;
 80021aa:	2380      	movs	r3, #128	@ 0x80
 80021ac:	015b      	lsls	r3, r3, #5
 80021ae:	469b      	mov	fp, r3
    hspi->Init.CRCCalculation = SPI_CRCCALCULATION_DISABLE;
 80021b0:	2300      	movs	r3, #0
 80021b2:	469c      	mov	ip, r3
 80021b4:	62a3      	str	r3, [r4, #40]	@ 0x28
 80021b6:	e78f      	b.n	80020d8 <HAL_SPI_Init+0x5c>
    return HAL_ERROR;
 80021b8:	2001      	movs	r0, #1
 80021ba:	e7d0      	b.n	800215e <HAL_SPI_Init+0xe2>
    frxth = SPI_RXFIFO_THRESHOLD_HF;
 80021bc:	2300      	movs	r3, #0
 80021be:	469b      	mov	fp, r3
 80021c0:	e7f6      	b.n	80021b0 <HAL_SPI_Init+0x134>
 80021c2:	46c0      	nop			@ (mov r8, r8)
 80021c4:	fffff7ff 	.word	0xfffff7ff

080021c8 <HAL_SPI_Transmit>:
{
 80021c8:	b5f0      	push	{r4, r5, r6, r7, lr}
 80021ca:	46ce      	mov	lr, r9
 80021cc:	4647      	mov	r7, r8
 80021ce:	001e      	movs	r6, r3
  __HAL_LOCK(hspi);
 80021d0:	235c      	movs	r3, #92	@ 0x5c
{
 80021d2:	b580      	push	{r7, lr}
 80021d4:	4691      	mov	r9, r2
  __HAL_LOCK(hspi);
 80021d6:	5cc2      	ldrb	r2, [r0, r3]
{
 80021d8:	0004      	movs	r4, r0
 80021da:	000d      	movs	r5, r1
 80021dc:	b083      	sub	sp, #12
  __HAL_LOCK(hspi);
 80021de:	2a01      	cmp	r2, #1
 80021e0:	d100      	bne.n	80021e4 <HAL_SPI_Transmit+0x1c>
 80021e2:	e07b      	b.n	80022dc <HAL_SPI_Transmit+0x114>
 80021e4:	2201      	movs	r2, #1
 80021e6:	54c2      	strb	r2, [r0, r3]
  tickstart = HAL_GetTick();
 80021e8:	f7fe fdde 	bl	8000da8 <HAL_GetTick>
  if (hspi->State != HAL_SPI_STATE_READY)
 80021ec:	225d      	movs	r2, #93	@ 0x5d
 80021ee:	5ca3      	ldrb	r3, [r4, r2]
  tickstart = HAL_GetTick();
 80021f0:	4680      	mov	r8, r0
  if (hspi->State != HAL_SPI_STATE_READY)
 80021f2:	b2df      	uxtb	r7, r3
 80021f4:	2b01      	cmp	r3, #1
 80021f6:	d009      	beq.n	800220c <HAL_SPI_Transmit+0x44>
    errorcode = HAL_BUSY;
 80021f8:	2702      	movs	r7, #2
  __HAL_UNLOCK(hspi);
 80021fa:	235c      	movs	r3, #92	@ 0x5c
 80021fc:	2200      	movs	r2, #0
 80021fe:	54e2      	strb	r2, [r4, r3]
}
 8002200:	0038      	movs	r0, r7
 8002202:	b003      	add	sp, #12
 8002204:	bcc0      	pop	{r6, r7}
 8002206:	46b9      	mov	r9, r7
 8002208:	46b0      	mov	r8, r6
 800220a:	bdf0      	pop	{r4, r5, r6, r7, pc}
  if ((pData == NULL) || (Size == 0U))
 800220c:	2d00      	cmp	r5, #0
 800220e:	d0f4      	beq.n	80021fa <HAL_SPI_Transmit+0x32>
 8002210:	464b      	mov	r3, r9
 8002212:	2b00      	cmp	r3, #0
 8002214:	d0f1      	beq.n	80021fa <HAL_SPI_Transmit+0x32>
  hspi->State       = HAL_SPI_STATE_BUSY_TX;
 8002216:	2303      	movs	r3, #3
 8002218:	54a3      	strb	r3, [r4, r2]
  hspi->ErrorCode   = HAL_SPI_ERROR_NONE;
 800221a:	2300      	movs	r3, #0
  hspi->TxXferSize  = Size;
 800221c:	464a      	mov	r2, r9
  hspi->ErrorCode   = HAL_SPI_ERROR_NONE;
 800221e:	6623      	str	r3, [r4, #96]	@ 0x60
  hspi->TxXferSize  = Size;
 8002220:	87a2      	strh	r2, [r4, #60]	@ 0x3c
  hspi->TxXferCount = Size;
 8002222:	87e2      	strh	r2, [r4, #62]	@ 0x3e
  hspi->RxXferSize  = 0U;
 8002224:	2244      	movs	r2, #68	@ 0x44
  hspi->pRxBuffPtr  = (uint8_t *)NULL;
 8002226:	6423      	str	r3, [r4, #64]	@ 0x40
  hspi->pTxBuffPtr  = (uint8_t *)pData;
 8002228:	63a5      	str	r5, [r4, #56]	@ 0x38
  hspi->RxXferSize  = 0U;
 800222a:	52a3      	strh	r3, [r4, r2]
  hspi->RxXferCount = 0U;
 800222c:	3202      	adds	r2, #2
 800222e:	52a3      	strh	r3, [r4, r2]
  hspi->TxISR       = NULL;
 8002230:	6523      	str	r3, [r4, #80]	@ 0x50
  hspi->RxISR       = NULL;
 8002232:	64e3      	str	r3, [r4, #76]	@ 0x4c
  if (hspi->Init.Direction == SPI_DIRECTION_1LINE)
 8002234:	2380      	movs	r3, #128	@ 0x80
    __HAL_SPI_DISABLE(hspi);
 8002236:	6820      	ldr	r0, [r4, #0]
  if (hspi->Init.Direction == SPI_DIRECTION_1LINE)
 8002238:	68a1      	ldr	r1, [r4, #8]
    __HAL_SPI_DISABLE(hspi);
 800223a:	0002      	movs	r2, r0
  if (hspi->Init.Direction == SPI_DIRECTION_1LINE)
 800223c:	021b      	lsls	r3, r3, #8
 800223e:	4299      	cmp	r1, r3
 8002240:	d100      	bne.n	8002244 <HAL_SPI_Transmit+0x7c>
 8002242:	e078      	b.n	8002336 <HAL_SPI_Transmit+0x16e>
  if ((hspi->Instance->CR1 & SPI_CR1_SPE) != SPI_CR1_SPE)
 8002244:	2340      	movs	r3, #64	@ 0x40
 8002246:	6801      	ldr	r1, [r0, #0]
 8002248:	420b      	tst	r3, r1
 800224a:	d102      	bne.n	8002252 <HAL_SPI_Transmit+0x8a>
    __HAL_SPI_ENABLE(hspi);
 800224c:	6801      	ldr	r1, [r0, #0]
 800224e:	430b      	orrs	r3, r1
 8002250:	6003      	str	r3, [r0, #0]
    if ((hspi->Init.Mode == SPI_MODE_SLAVE) || (initial_TxXferCount == 0x01U))
 8002252:	6863      	ldr	r3, [r4, #4]
  if (hspi->Init.DataSize > SPI_DATASIZE_8BIT)
 8002254:	68e1      	ldr	r1, [r4, #12]
    if ((hspi->Init.Mode == SPI_MODE_SLAVE) || (initial_TxXferCount == 0x01U))
 8002256:	469c      	mov	ip, r3
  if (hspi->Init.DataSize > SPI_DATASIZE_8BIT)
 8002258:	23e0      	movs	r3, #224	@ 0xe0
 800225a:	00db      	lsls	r3, r3, #3
 800225c:	4299      	cmp	r1, r3
 800225e:	d93f      	bls.n	80022e0 <HAL_SPI_Transmit+0x118>
    if ((hspi->Init.Mode == SPI_MODE_SLAVE) || (initial_TxXferCount == 0x01U))
 8002260:	4663      	mov	r3, ip
 8002262:	2b00      	cmp	r3, #0
 8002264:	d100      	bne.n	8002268 <HAL_SPI_Transmit+0xa0>
 8002266:	e0ae      	b.n	80023c6 <HAL_SPI_Transmit+0x1fe>
 8002268:	464b      	mov	r3, r9
 800226a:	2b01      	cmp	r3, #1
 800226c:	d100      	bne.n	8002270 <HAL_SPI_Transmit+0xa8>
 800226e:	e0aa      	b.n	80023c6 <HAL_SPI_Transmit+0x1fe>
    while (hspi->TxXferCount > 0U)
 8002270:	8fe3      	ldrh	r3, [r4, #62]	@ 0x3e
 8002272:	2b00      	cmp	r3, #0
 8002274:	d016      	beq.n	80022a4 <HAL_SPI_Transmit+0xdc>
      if (__HAL_SPI_GET_FLAG(hspi, SPI_FLAG_TXE))
 8002276:	2502      	movs	r5, #2
 8002278:	1c73      	adds	r3, r6, #1
 800227a:	d000      	beq.n	800227e <HAL_SPI_Transmit+0xb6>
 800227c:	e08f      	b.n	800239e <HAL_SPI_Transmit+0x1d6>
 800227e:	2302      	movs	r3, #2
 8002280:	4699      	mov	r9, r3
 8002282:	464a      	mov	r2, r9
 8002284:	6883      	ldr	r3, [r0, #8]
 8002286:	421a      	tst	r2, r3
 8002288:	d100      	bne.n	800228c <HAL_SPI_Transmit+0xc4>
 800228a:	e0a5      	b.n	80023d8 <HAL_SPI_Transmit+0x210>
        hspi->Instance->DR = *((uint16_t *)hspi->pTxBuffPtr);
 800228c:	6ba3      	ldr	r3, [r4, #56]	@ 0x38
 800228e:	881a      	ldrh	r2, [r3, #0]
        hspi->pTxBuffPtr += sizeof(uint16_t);
 8002290:	3302      	adds	r3, #2
        hspi->Instance->DR = *((uint16_t *)hspi->pTxBuffPtr);
 8002292:	60c2      	str	r2, [r0, #12]
        hspi->TxXferCount--;
 8002294:	8fe5      	ldrh	r5, [r4, #62]	@ 0x3e
        hspi->pTxBuffPtr += sizeof(uint16_t);
 8002296:	63a3      	str	r3, [r4, #56]	@ 0x38
        hspi->TxXferCount--;
 8002298:	3d01      	subs	r5, #1
 800229a:	b2ad      	uxth	r5, r5
 800229c:	87e5      	strh	r5, [r4, #62]	@ 0x3e
    while (hspi->TxXferCount > 0U)
 800229e:	8fe3      	ldrh	r3, [r4, #62]	@ 0x3e
 80022a0:	2b00      	cmp	r3, #0
 80022a2:	d1ee      	bne.n	8002282 <HAL_SPI_Transmit+0xba>
  if (SPI_EndRxTxTransaction(hspi, Timeout, tickstart) != HAL_OK)
 80022a4:	4642      	mov	r2, r8
 80022a6:	0031      	movs	r1, r6
 80022a8:	0020      	movs	r0, r4
 80022aa:	f7ff fe35 	bl	8001f18 <SPI_EndRxTxTransaction>
 80022ae:	2800      	cmp	r0, #0
 80022b0:	d001      	beq.n	80022b6 <HAL_SPI_Transmit+0xee>
    hspi->ErrorCode = HAL_SPI_ERROR_FLAG;
 80022b2:	2320      	movs	r3, #32
 80022b4:	6623      	str	r3, [r4, #96]	@ 0x60
  if (hspi->Init.Direction == SPI_DIRECTION_2LINES)
 80022b6:	68a3      	ldr	r3, [r4, #8]
 80022b8:	2b00      	cmp	r3, #0
 80022ba:	d106      	bne.n	80022ca <HAL_SPI_Transmit+0x102>
    __HAL_SPI_CLEAR_OVRFLAG(hspi);
 80022bc:	9301      	str	r3, [sp, #4]
 80022be:	6823      	ldr	r3, [r4, #0]
 80022c0:	68da      	ldr	r2, [r3, #12]
 80022c2:	9201      	str	r2, [sp, #4]
 80022c4:	689b      	ldr	r3, [r3, #8]
 80022c6:	9301      	str	r3, [sp, #4]
 80022c8:	9b01      	ldr	r3, [sp, #4]
  if (hspi->ErrorCode != HAL_SPI_ERROR_NONE)
 80022ca:	6e23      	ldr	r3, [r4, #96]	@ 0x60
 80022cc:	2b00      	cmp	r3, #0
 80022ce:	d000      	beq.n	80022d2 <HAL_SPI_Transmit+0x10a>
 80022d0:	e793      	b.n	80021fa <HAL_SPI_Transmit+0x32>
    hspi->State = HAL_SPI_STATE_READY;
 80022d2:	2201      	movs	r2, #1
 80022d4:	335d      	adds	r3, #93	@ 0x5d
  HAL_StatusTypeDef errorcode = HAL_OK;
 80022d6:	2700      	movs	r7, #0
    hspi->State = HAL_SPI_STATE_READY;
 80022d8:	54e2      	strb	r2, [r4, r3]
 80022da:	e78e      	b.n	80021fa <HAL_SPI_Transmit+0x32>
  __HAL_LOCK(hspi);
 80022dc:	2702      	movs	r7, #2
 80022de:	e78f      	b.n	8002200 <HAL_SPI_Transmit+0x38>
    if ((hspi->Init.Mode == SPI_MODE_SLAVE) || (initial_TxXferCount == 0x01U))
 80022e0:	4663      	mov	r3, ip
 80022e2:	2b00      	cmp	r3, #0
 80022e4:	d065      	beq.n	80023b2 <HAL_SPI_Transmit+0x1ea>
 80022e6:	464b      	mov	r3, r9
 80022e8:	2b01      	cmp	r3, #1
 80022ea:	d062      	beq.n	80023b2 <HAL_SPI_Transmit+0x1ea>
    while (hspi->TxXferCount > 0U)
 80022ec:	8fe3      	ldrh	r3, [r4, #62]	@ 0x3e
 80022ee:	2b00      	cmp	r3, #0
 80022f0:	d0d8      	beq.n	80022a4 <HAL_SPI_Transmit+0xdc>
      if (__HAL_SPI_GET_FLAG(hspi, SPI_FLAG_TXE))
 80022f2:	2502      	movs	r5, #2
 80022f4:	1c73      	adds	r3, r6, #1
 80022f6:	d135      	bne.n	8002364 <HAL_SPI_Transmit+0x19c>
 80022f8:	2302      	movs	r3, #2
 80022fa:	4699      	mov	r9, r3
 80022fc:	4649      	mov	r1, r9
 80022fe:	6823      	ldr	r3, [r4, #0]
 8002300:	689a      	ldr	r2, [r3, #8]
 8002302:	4211      	tst	r1, r2
 8002304:	d011      	beq.n	800232a <HAL_SPI_Transmit+0x162>
        *((__IO uint8_t *)&hspi->Instance->DR) = (*hspi->pTxBuffPtr);
 8002306:	6ba2      	ldr	r2, [r4, #56]	@ 0x38
 8002308:	7812      	ldrb	r2, [r2, #0]
 800230a:	731a      	strb	r2, [r3, #12]
        hspi->TxXferCount--;
 800230c:	8fe5      	ldrh	r5, [r4, #62]	@ 0x3e
        hspi->pTxBuffPtr += sizeof(uint8_t);
 800230e:	6ba3      	ldr	r3, [r4, #56]	@ 0x38
        hspi->TxXferCount--;
 8002310:	3d01      	subs	r5, #1
 8002312:	b2ad      	uxth	r5, r5
        hspi->pTxBuffPtr += sizeof(uint8_t);
 8002314:	3301      	adds	r3, #1
        hspi->TxXferCount--;
 8002316:	87e5      	strh	r5, [r4, #62]	@ 0x3e
        hspi->pTxBuffPtr += sizeof(uint8_t);
 8002318:	63a3      	str	r3, [r4, #56]	@ 0x38
    while (hspi->TxXferCount > 0U)
 800231a:	8fe3      	ldrh	r3, [r4, #62]	@ 0x3e
 800231c:	2b00      	cmp	r3, #0
 800231e:	d0c1      	beq.n	80022a4 <HAL_SPI_Transmit+0xdc>
      if (__HAL_SPI_GET_FLAG(hspi, SPI_FLAG_TXE))
 8002320:	4649      	mov	r1, r9
 8002322:	6823      	ldr	r3, [r4, #0]
 8002324:	689a      	ldr	r2, [r3, #8]
 8002326:	4211      	tst	r1, r2
 8002328:	d1ed      	bne.n	8002306 <HAL_SPI_Transmit+0x13e>
        if ((((HAL_GetTick() - tickstart) >=  Timeout) && (Timeout != HAL_MAX_DELAY)) || (Timeout == 0U))
 800232a:	f7fe fd3d 	bl	8000da8 <HAL_GetTick>
    while (hspi->TxXferCount > 0U)
 800232e:	8fe3      	ldrh	r3, [r4, #62]	@ 0x3e
 8002330:	2b00      	cmp	r3, #0
 8002332:	d1e3      	bne.n	80022fc <HAL_SPI_Transmit+0x134>
 8002334:	e7b6      	b.n	80022a4 <HAL_SPI_Transmit+0xdc>
    __HAL_SPI_DISABLE(hspi);
 8002336:	2140      	movs	r1, #64	@ 0x40
 8002338:	6803      	ldr	r3, [r0, #0]
 800233a:	438b      	bics	r3, r1
 800233c:	6003      	str	r3, [r0, #0]
    SPI_1LINE_TX(hspi);
 800233e:	2380      	movs	r3, #128	@ 0x80
 8002340:	6801      	ldr	r1, [r0, #0]
 8002342:	01db      	lsls	r3, r3, #7
 8002344:	430b      	orrs	r3, r1
 8002346:	6003      	str	r3, [r0, #0]
 8002348:	e77c      	b.n	8002244 <HAL_SPI_Transmit+0x7c>
        *((__IO uint8_t *)&hspi->Instance->DR) = (*hspi->pTxBuffPtr);
 800234a:	6ba2      	ldr	r2, [r4, #56]	@ 0x38
 800234c:	7812      	ldrb	r2, [r2, #0]
 800234e:	731a      	strb	r2, [r3, #12]
        hspi->pTxBuffPtr += sizeof(uint8_t);
 8002350:	6ba3      	ldr	r3, [r4, #56]	@ 0x38
 8002352:	3301      	adds	r3, #1
 8002354:	63a3      	str	r3, [r4, #56]	@ 0x38
        hspi->TxXferCount--;
 8002356:	8fe3      	ldrh	r3, [r4, #62]	@ 0x3e
 8002358:	3b01      	subs	r3, #1
 800235a:	b29b      	uxth	r3, r3
 800235c:	87e3      	strh	r3, [r4, #62]	@ 0x3e
    while (hspi->TxXferCount > 0U)
 800235e:	8fe3      	ldrh	r3, [r4, #62]	@ 0x3e
 8002360:	2b00      	cmp	r3, #0
 8002362:	d09f      	beq.n	80022a4 <HAL_SPI_Transmit+0xdc>
      if (__HAL_SPI_GET_FLAG(hspi, SPI_FLAG_TXE))
 8002364:	6823      	ldr	r3, [r4, #0]
 8002366:	689a      	ldr	r2, [r3, #8]
 8002368:	4215      	tst	r5, r2
 800236a:	d1ee      	bne.n	800234a <HAL_SPI_Transmit+0x182>
        if ((((HAL_GetTick() - tickstart) >=  Timeout) && (Timeout != HAL_MAX_DELAY)) || (Timeout == 0U))
 800236c:	f7fe fd1c 	bl	8000da8 <HAL_GetTick>
 8002370:	4643      	mov	r3, r8
 8002372:	1ac0      	subs	r0, r0, r3
 8002374:	42b0      	cmp	r0, r6
 8002376:	d3f2      	bcc.n	800235e <HAL_SPI_Transmit+0x196>
          hspi->State = HAL_SPI_STATE_READY;
 8002378:	235d      	movs	r3, #93	@ 0x5d
 800237a:	2201      	movs	r2, #1
          errorcode = HAL_TIMEOUT;
 800237c:	2703      	movs	r7, #3
          hspi->State = HAL_SPI_STATE_READY;
 800237e:	54e2      	strb	r2, [r4, r3]
          goto error;
 8002380:	e73b      	b.n	80021fa <HAL_SPI_Transmit+0x32>
        hspi->Instance->DR = *((uint16_t *)hspi->pTxBuffPtr);
 8002382:	6ba3      	ldr	r3, [r4, #56]	@ 0x38
 8002384:	8819      	ldrh	r1, [r3, #0]
        hspi->pTxBuffPtr += sizeof(uint16_t);
 8002386:	3302      	adds	r3, #2
        hspi->Instance->DR = *((uint16_t *)hspi->pTxBuffPtr);
 8002388:	60d1      	str	r1, [r2, #12]
        hspi->pTxBuffPtr += sizeof(uint16_t);
 800238a:	63a3      	str	r3, [r4, #56]	@ 0x38
        hspi->TxXferCount--;
 800238c:	8fe3      	ldrh	r3, [r4, #62]	@ 0x3e
 800238e:	3b01      	subs	r3, #1
 8002390:	b29b      	uxth	r3, r3
 8002392:	87e3      	strh	r3, [r4, #62]	@ 0x3e
    while (hspi->TxXferCount > 0U)
 8002394:	8fe3      	ldrh	r3, [r4, #62]	@ 0x3e
 8002396:	2b00      	cmp	r3, #0
 8002398:	d100      	bne.n	800239c <HAL_SPI_Transmit+0x1d4>
 800239a:	e783      	b.n	80022a4 <HAL_SPI_Transmit+0xdc>
      if (__HAL_SPI_GET_FLAG(hspi, SPI_FLAG_TXE))
 800239c:	6822      	ldr	r2, [r4, #0]
 800239e:	6893      	ldr	r3, [r2, #8]
 80023a0:	421d      	tst	r5, r3
 80023a2:	d1ee      	bne.n	8002382 <HAL_SPI_Transmit+0x1ba>
        if ((((HAL_GetTick() - tickstart) >=  Timeout) && (Timeout != HAL_MAX_DELAY)) || (Timeout == 0U))
 80023a4:	f7fe fd00 	bl	8000da8 <HAL_GetTick>
 80023a8:	4643      	mov	r3, r8
 80023aa:	1ac0      	subs	r0, r0, r3
 80023ac:	42b0      	cmp	r0, r6
 80023ae:	d3f1      	bcc.n	8002394 <HAL_SPI_Transmit+0x1cc>
 80023b0:	e7e2      	b.n	8002378 <HAL_SPI_Transmit+0x1b0>
      *((__IO uint8_t *)&hspi->Instance->DR) = (*hspi->pTxBuffPtr);
 80023b2:	782b      	ldrb	r3, [r5, #0]
 80023b4:	7303      	strb	r3, [r0, #12]
      hspi->pTxBuffPtr += sizeof(uint8_t);
 80023b6:	6ba3      	ldr	r3, [r4, #56]	@ 0x38
 80023b8:	3301      	adds	r3, #1
 80023ba:	63a3      	str	r3, [r4, #56]	@ 0x38
      hspi->TxXferCount--;
 80023bc:	8fe3      	ldrh	r3, [r4, #62]	@ 0x3e
 80023be:	3b01      	subs	r3, #1
 80023c0:	b29b      	uxth	r3, r3
 80023c2:	87e3      	strh	r3, [r4, #62]	@ 0x3e
 80023c4:	e792      	b.n	80022ec <HAL_SPI_Transmit+0x124>
      hspi->Instance->DR = *((uint16_t *)hspi->pTxBuffPtr);
 80023c6:	882b      	ldrh	r3, [r5, #0]
      hspi->pTxBuffPtr += sizeof(uint16_t);
 80023c8:	3502      	adds	r5, #2
      hspi->Instance->DR = *((uint16_t *)hspi->pTxBuffPtr);
 80023ca:	60c3      	str	r3, [r0, #12]
      hspi->TxXferCount--;
 80023cc:	8fe3      	ldrh	r3, [r4, #62]	@ 0x3e
      hspi->pTxBuffPtr += sizeof(uint16_t);
 80023ce:	63a5      	str	r5, [r4, #56]	@ 0x38
      hspi->TxXferCount--;
 80023d0:	3b01      	subs	r3, #1
 80023d2:	b29b      	uxth	r3, r3
 80023d4:	87e3      	strh	r3, [r4, #62]	@ 0x3e
 80023d6:	e74b      	b.n	8002270 <HAL_SPI_Transmit+0xa8>
        if ((((HAL_GetTick() - tickstart) >=  Timeout) && (Timeout != HAL_MAX_DELAY)) || (Timeout == 0U))
 80023d8:	f7fe fce6 	bl	8000da8 <HAL_GetTick>
    while (hspi->TxXferCount > 0U)
 80023dc:	8fe3      	ldrh	r3, [r4, #62]	@ 0x3e
 80023de:	2b00      	cmp	r3, #0
 80023e0:	d100      	bne.n	80023e4 <HAL_SPI_Transmit+0x21c>
 80023e2:	e75f      	b.n	80022a4 <HAL_SPI_Transmit+0xdc>
 80023e4:	6820      	ldr	r0, [r4, #0]
 80023e6:	e74c      	b.n	8002282 <HAL_SPI_Transmit+0xba>

080023e8 <HAL_TIM_Base_Init>:
  *         Ex: call @ref HAL_TIM_Base_DeInit() before HAL_TIM_Base_Init()
  * @param  htim TIM Base handle
  * @retval HAL status
  */
HAL_StatusTypeDef HAL_TIM_Base_Init(TIM_HandleTypeDef *htim)
{
 80023e8:	b570      	push	{r4, r5, r6, lr}
 80023ea:	1e04      	subs	r4, r0, #0
  /* Check the TIM handle allocation */
  if (htim == NULL)
 80023ec:	d063      	beq.n	80024b6 <HAL_TIM_Base_Init+0xce>
  assert_param(IS_TIM_COUNTER_MODE(htim->Init.CounterMode));
  assert_param(IS_TIM_CLOCKDIVISION_DIV(htim->Init.ClockDivision));
  assert_param(IS_TIM_PERIOD(htim, htim->Init.Period));
  assert_param(IS_TIM_AUTORELOAD_PRELOAD(htim->Init.AutoReloadPreload));

  if (htim->State == HAL_TIM_STATE_RESET)
 80023ee:	233d      	movs	r3, #61	@ 0x3d
 80023f0:	5cc3      	ldrb	r3, [r0, r3]
 80023f2:	b2da      	uxtb	r2, r3
 80023f4:	2b00      	cmp	r3, #0
 80023f6:	d050      	beq.n	800249a <HAL_TIM_Base_Init+0xb2>
    HAL_TIM_Base_MspInit(htim);
#endif /* USE_HAL_TIM_REGISTER_CALLBACKS */
  }

  /* Set the TIM state */
  htim->State = HAL_TIM_STATE_BUSY;
 80023f8:	233d      	movs	r3, #61	@ 0x3d
 80023fa:	2202      	movs	r2, #2
 80023fc:	54e2      	strb	r2, [r4, r3]

  /* Set the Time Base configuration */
  TIM_Base_SetConfig(htim->Instance, &htim->Init);
 80023fe:	6823      	ldr	r3, [r4, #0]
{
  uint32_t tmpcr1;
  tmpcr1 = TIMx->CR1;

  /* Set TIM Time Base Unit parameters ---------------------------------------*/
  if (IS_TIM_COUNTER_MODE_SELECT_INSTANCE(TIMx))
 8002400:	4e33      	ldr	r6, [pc, #204]	@ (80024d0 <HAL_TIM_Base_Init+0xe8>)
  tmpcr1 = TIMx->CR1;
 8002402:	681a      	ldr	r2, [r3, #0]

  /* Set the Autoreload value */
  TIMx->ARR = (uint32_t)Structure->Period ;

  /* Set the Prescaler value */
  TIMx->PSC = Structure->Prescaler;
 8002404:	6861      	ldr	r1, [r4, #4]
  TIMx->ARR = (uint32_t)Structure->Period ;
 8002406:	68e0      	ldr	r0, [r4, #12]
  MODIFY_REG(tmpcr1, TIM_CR1_ARPE, Structure->AutoReloadPreload);
 8002408:	69a5      	ldr	r5, [r4, #24]
  if (IS_TIM_COUNTER_MODE_SELECT_INSTANCE(TIMx))
 800240a:	42b3      	cmp	r3, r6
 800240c:	d012      	beq.n	8002434 <HAL_TIM_Base_Init+0x4c>
 800240e:	4e31      	ldr	r6, [pc, #196]	@ (80024d4 <HAL_TIM_Base_Init+0xec>)
 8002410:	42b3      	cmp	r3, r6
 8002412:	d047      	beq.n	80024a4 <HAL_TIM_Base_Init+0xbc>
  if (IS_TIM_CLOCK_DIVISION_INSTANCE(TIMx))
 8002414:	4e30      	ldr	r6, [pc, #192]	@ (80024d8 <HAL_TIM_Base_Init+0xf0>)
 8002416:	42b3      	cmp	r3, r6
 8002418:	d048      	beq.n	80024ac <HAL_TIM_Base_Init+0xc4>
 800241a:	4e30      	ldr	r6, [pc, #192]	@ (80024dc <HAL_TIM_Base_Init+0xf4>)
 800241c:	42b3      	cmp	r3, r6
 800241e:	d00d      	beq.n	800243c <HAL_TIM_Base_Init+0x54>
 8002420:	4e2f      	ldr	r6, [pc, #188]	@ (80024e0 <HAL_TIM_Base_Init+0xf8>)
 8002422:	42b3      	cmp	r3, r6
 8002424:	d049      	beq.n	80024ba <HAL_TIM_Base_Init+0xd2>
  MODIFY_REG(tmpcr1, TIM_CR1_ARPE, Structure->AutoReloadPreload);
 8002426:	2680      	movs	r6, #128	@ 0x80
 8002428:	43b2      	bics	r2, r6
 800242a:	432a      	orrs	r2, r5
  TIMx->CR1 = tmpcr1;
 800242c:	601a      	str	r2, [r3, #0]
  TIMx->ARR = (uint32_t)Structure->Period ;
 800242e:	62d8      	str	r0, [r3, #44]	@ 0x2c
  TIMx->PSC = Structure->Prescaler;
 8002430:	6299      	str	r1, [r3, #40]	@ 0x28

  if (IS_TIM_REPETITION_COUNTER_INSTANCE(TIMx))
 8002432:	e00f      	b.n	8002454 <HAL_TIM_Base_Init+0x6c>
    tmpcr1 &= ~(TIM_CR1_DIR | TIM_CR1_CMS);
 8002434:	2670      	movs	r6, #112	@ 0x70
 8002436:	43b2      	bics	r2, r6
    tmpcr1 |= Structure->CounterMode;
 8002438:	68a6      	ldr	r6, [r4, #8]
 800243a:	4332      	orrs	r2, r6
    tmpcr1 &= ~TIM_CR1_CKD;
 800243c:	4e29      	ldr	r6, [pc, #164]	@ (80024e4 <HAL_TIM_Base_Init+0xfc>)
 800243e:	4032      	ands	r2, r6
    tmpcr1 |= (uint32_t)Structure->ClockDivision;
 8002440:	6926      	ldr	r6, [r4, #16]
 8002442:	4332      	orrs	r2, r6
  MODIFY_REG(tmpcr1, TIM_CR1_ARPE, Structure->AutoReloadPreload);
 8002444:	2680      	movs	r6, #128	@ 0x80
 8002446:	43b2      	bics	r2, r6
 8002448:	432a      	orrs	r2, r5
  TIMx->CR1 = tmpcr1;
 800244a:	601a      	str	r2, [r3, #0]
  TIMx->ARR = (uint32_t)Structure->Period ;
 800244c:	62d8      	str	r0, [r3, #44]	@ 0x2c
  TIMx->PSC = Structure->Prescaler;
 800244e:	6299      	str	r1, [r3, #40]	@ 0x28
  {
    /* Set the Repetition Counter value */
    TIMx->RCR = Structure->RepetitionCounter;
 8002450:	6962      	ldr	r2, [r4, #20]
 8002452:	631a      	str	r2, [r3, #48]	@ 0x30
  }

  /* Generate an update event to reload the Prescaler
     and the repetition counter (only for advanced timer) value immediately */
  TIMx->EGR = TIM_EGR_UG;
 8002454:	2201      	movs	r2, #1
 8002456:	615a      	str	r2, [r3, #20]

  /* Check if the update flag is set after the Update Generation, if so clear the UIF flag */
  if (HAL_IS_BIT_SET(TIMx->SR, TIM_FLAG_UPDATE))
 8002458:	6919      	ldr	r1, [r3, #16]
 800245a:	420a      	tst	r2, r1
 800245c:	d002      	beq.n	8002464 <HAL_TIM_Base_Init+0x7c>
  {
    /* Clear the update flag */
    CLEAR_BIT(TIMx->SR, TIM_FLAG_UPDATE);
 800245e:	6919      	ldr	r1, [r3, #16]
 8002460:	4391      	bics	r1, r2
 8002462:	6119      	str	r1, [r3, #16]
  htim->DMABurstState = HAL_DMA_BURST_STATE_READY;
 8002464:	2301      	movs	r3, #1
 8002466:	2248      	movs	r2, #72	@ 0x48
  return HAL_OK;
 8002468:	2000      	movs	r0, #0
  htim->DMABurstState = HAL_DMA_BURST_STATE_READY;
 800246a:	54a3      	strb	r3, [r4, r2]
  TIM_CHANNEL_STATE_SET_ALL(htim, HAL_TIM_CHANNEL_STATE_READY);
 800246c:	3a0a      	subs	r2, #10
 800246e:	54a3      	strb	r3, [r4, r2]
 8002470:	3201      	adds	r2, #1
 8002472:	54a3      	strb	r3, [r4, r2]
 8002474:	3201      	adds	r2, #1
 8002476:	54a3      	strb	r3, [r4, r2]
 8002478:	3201      	adds	r2, #1
 800247a:	54a3      	strb	r3, [r4, r2]
 800247c:	3201      	adds	r2, #1
 800247e:	54a3      	strb	r3, [r4, r2]
 8002480:	3201      	adds	r2, #1
 8002482:	54a3      	strb	r3, [r4, r2]
  TIM_CHANNEL_N_STATE_SET_ALL(htim, HAL_TIM_CHANNEL_STATE_READY);
 8002484:	3201      	adds	r2, #1
 8002486:	54a3      	strb	r3, [r4, r2]
 8002488:	3201      	adds	r2, #1
 800248a:	54a3      	strb	r3, [r4, r2]
 800248c:	3201      	adds	r2, #1
 800248e:	54a3      	strb	r3, [r4, r2]
 8002490:	3201      	adds	r2, #1
 8002492:	54a3      	strb	r3, [r4, r2]
  htim->State = HAL_TIM_STATE_READY;
 8002494:	3a0a      	subs	r2, #10
 8002496:	54a3      	strb	r3, [r4, r2]
}
 8002498:	bd70      	pop	{r4, r5, r6, pc}
    htim->Lock = HAL_UNLOCKED;
 800249a:	333c      	adds	r3, #60	@ 0x3c
 800249c:	54c2      	strb	r2, [r0, r3]
    HAL_TIM_Base_MspInit(htim);
 800249e:	f7fe fabf 	bl	8000a20 <HAL_TIM_Base_MspInit>
 80024a2:	e7a9      	b.n	80023f8 <HAL_TIM_Base_Init+0x10>
    tmpcr1 &= ~(TIM_CR1_DIR | TIM_CR1_CMS);
 80024a4:	2670      	movs	r6, #112	@ 0x70
 80024a6:	43b2      	bics	r2, r6
    tmpcr1 |= Structure->CounterMode;
 80024a8:	68a6      	ldr	r6, [r4, #8]
 80024aa:	4332      	orrs	r2, r6
    tmpcr1 &= ~TIM_CR1_CKD;
 80024ac:	4e0d      	ldr	r6, [pc, #52]	@ (80024e4 <HAL_TIM_Base_Init+0xfc>)
 80024ae:	4032      	ands	r2, r6
    tmpcr1 |= (uint32_t)Structure->ClockDivision;
 80024b0:	6926      	ldr	r6, [r4, #16]
 80024b2:	4332      	orrs	r2, r6
 80024b4:	e7b7      	b.n	8002426 <HAL_TIM_Base_Init+0x3e>
    return HAL_ERROR;
 80024b6:	2001      	movs	r0, #1
 80024b8:	e7ee      	b.n	8002498 <HAL_TIM_Base_Init+0xb0>
    tmpcr1 &= ~TIM_CR1_CKD;
 80024ba:	4e0a      	ldr	r6, [pc, #40]	@ (80024e4 <HAL_TIM_Base_Init+0xfc>)
 80024bc:	4032      	ands	r2, r6
    tmpcr1 |= (uint32_t)Structure->ClockDivision;
 80024be:	6926      	ldr	r6, [r4, #16]
 80024c0:	4332      	orrs	r2, r6
  MODIFY_REG(tmpcr1, TIM_CR1_ARPE, Structure->AutoReloadPreload);
 80024c2:	2680      	movs	r6, #128	@ 0x80
 80024c4:	43b2      	bics	r2, r6
 80024c6:	4315      	orrs	r5, r2
  TIMx->CR1 = tmpcr1;
 80024c8:	601d      	str	r5, [r3, #0]
  TIMx->ARR = (uint32_t)Structure->Period ;
 80024ca:	62d8      	str	r0, [r3, #44]	@ 0x2c
  TIMx->PSC = Structure->Prescaler;
 80024cc:	6299      	str	r1, [r3, #40]	@ 0x28
  if (IS_TIM_REPETITION_COUNTER_INSTANCE(TIMx))
 80024ce:	e7bf      	b.n	8002450 <HAL_TIM_Base_Init+0x68>
 80024d0:	40012c00 	.word	0x40012c00
 80024d4:	40000400 	.word	0x40000400
 80024d8:	40002000 	.word	0x40002000
 80024dc:	40014400 	.word	0x40014400
 80024e0:	40014800 	.word	0x40014800
 80024e4:	fffffcff 	.word	0xfffffcff

080024e8 <HAL_TIM_Base_Start_IT>:
  if (htim->State != HAL_TIM_STATE_READY)
 80024e8:	213d      	movs	r1, #61	@ 0x3d
{
 80024ea:	b510      	push	{r4, lr}
  if (htim->State != HAL_TIM_STATE_READY)
 80024ec:	5c42      	ldrb	r2, [r0, r1]
{
 80024ee:	0003      	movs	r3, r0
  if (htim->State != HAL_TIM_STATE_READY)
 80024f0:	b2d4      	uxtb	r4, r2
    return HAL_ERROR;
 80024f2:	2001      	movs	r0, #1
  if (htim->State != HAL_TIM_STATE_READY)
 80024f4:	2a01      	cmp	r2, #1
 80024f6:	d10f      	bne.n	8002518 <HAL_TIM_Base_Start_IT+0x30>
  htim->State = HAL_TIM_STATE_BUSY;
 80024f8:	3201      	adds	r2, #1
 80024fa:	545a      	strb	r2, [r3, r1]
  __HAL_TIM_ENABLE_IT(htim, TIM_IT_UPDATE);
 80024fc:	681b      	ldr	r3, [r3, #0]
 80024fe:	68da      	ldr	r2, [r3, #12]
 8002500:	4322      	orrs	r2, r4
 8002502:	60da      	str	r2, [r3, #12]
  if (IS_TIM_SLAVE_INSTANCE(htim->Instance))
 8002504:	4a0c      	ldr	r2, [pc, #48]	@ (8002538 <HAL_TIM_Base_Start_IT+0x50>)
 8002506:	4293      	cmp	r3, r2
 8002508:	d007      	beq.n	800251a <HAL_TIM_Base_Start_IT+0x32>
 800250a:	4a0c      	ldr	r2, [pc, #48]	@ (800253c <HAL_TIM_Base_Start_IT+0x54>)
 800250c:	4293      	cmp	r3, r2
 800250e:	d004      	beq.n	800251a <HAL_TIM_Base_Start_IT+0x32>
    __HAL_TIM_ENABLE(htim);
 8002510:	681a      	ldr	r2, [r3, #0]
 8002512:	4322      	orrs	r2, r4
 8002514:	601a      	str	r2, [r3, #0]
  return HAL_OK;
 8002516:	2000      	movs	r0, #0
}
 8002518:	bd10      	pop	{r4, pc}
    tmpsmcr = htim->Instance->SMCR & TIM_SMCR_SMS;
 800251a:	689a      	ldr	r2, [r3, #8]
 800251c:	4908      	ldr	r1, [pc, #32]	@ (8002540 <HAL_TIM_Base_Start_IT+0x58>)
 800251e:	400a      	ands	r2, r1
    if (!IS_TIM_SLAVEMODE_TRIGGER_ENABLED(tmpsmcr))
 8002520:	2a06      	cmp	r2, #6
 8002522:	d0f8      	beq.n	8002516 <HAL_TIM_Base_Start_IT+0x2e>
 8002524:	3907      	subs	r1, #7
 8002526:	428a      	cmp	r2, r1
 8002528:	d0f5      	beq.n	8002516 <HAL_TIM_Base_Start_IT+0x2e>
      __HAL_TIM_ENABLE(htim);
 800252a:	2101      	movs	r1, #1
 800252c:	681a      	ldr	r2, [r3, #0]
  return HAL_OK;
 800252e:	2000      	movs	r0, #0
      __HAL_TIM_ENABLE(htim);
 8002530:	430a      	orrs	r2, r1
 8002532:	601a      	str	r2, [r3, #0]
 8002534:	e7f0      	b.n	8002518 <HAL_TIM_Base_Start_IT+0x30>
 8002536:	46c0      	nop			@ (mov r8, r8)
 8002538:	40012c00 	.word	0x40012c00
 800253c:	40000400 	.word	0x40000400
 8002540:	00010007 	.word	0x00010007

08002544 <HAL_TIM_ConfigClockSource>:
  __HAL_LOCK(htim);
 8002544:	233c      	movs	r3, #60	@ 0x3c
{
 8002546:	b570      	push	{r4, r5, r6, lr}
 8002548:	0002      	movs	r2, r0
  __HAL_LOCK(htim);
 800254a:	5cc0      	ldrb	r0, [r0, r3]
 800254c:	2801      	cmp	r0, #1
 800254e:	d100      	bne.n	8002552 <HAL_TIM_ConfigClockSource+0xe>
 8002550:	e073      	b.n	800263a <HAL_TIM_ConfigClockSource+0xf6>
 8002552:	2401      	movs	r4, #1
  htim->State = HAL_TIM_STATE_BUSY;
 8002554:	2002      	movs	r0, #2
  __HAL_LOCK(htim);
 8002556:	54d4      	strb	r4, [r2, r3]
  htim->State = HAL_TIM_STATE_BUSY;
 8002558:	3301      	adds	r3, #1
 800255a:	54d0      	strb	r0, [r2, r3]
  tmpsmcr = htim->Instance->SMCR;
 800255c:	6810      	ldr	r0, [r2, #0]
  tmpsmcr &= ~(TIM_SMCR_ETF | TIM_SMCR_ETPS | TIM_SMCR_ECE | TIM_SMCR_ETP);
 800255e:	4d51      	ldr	r5, [pc, #324]	@ (80026a4 <HAL_TIM_ConfigClockSource+0x160>)
  tmpsmcr = htim->Instance->SMCR;
 8002560:	6883      	ldr	r3, [r0, #8]
  tmpsmcr &= ~(TIM_SMCR_ETF | TIM_SMCR_ETPS | TIM_SMCR_ECE | TIM_SMCR_ETP);
 8002562:	402b      	ands	r3, r5
  htim->Instance->SMCR = tmpsmcr;
 8002564:	6083      	str	r3, [r0, #8]
  switch (sClockSourceConfig->ClockSource)
 8002566:	680b      	ldr	r3, [r1, #0]
 8002568:	2b60      	cmp	r3, #96	@ 0x60
 800256a:	d100      	bne.n	800256e <HAL_TIM_ConfigClockSource+0x2a>
 800256c:	e067      	b.n	800263e <HAL_TIM_ConfigClockSource+0xfa>
 800256e:	d81d      	bhi.n	80025ac <HAL_TIM_ConfigClockSource+0x68>
 8002570:	2b40      	cmp	r3, #64	@ 0x40
 8002572:	d100      	bne.n	8002576 <HAL_TIM_ConfigClockSource+0x32>
 8002574:	e07d      	b.n	8002672 <HAL_TIM_ConfigClockSource+0x12e>
 8002576:	d93f      	bls.n	80025f8 <HAL_TIM_ConfigClockSource+0xb4>
 8002578:	2b50      	cmp	r3, #80	@ 0x50
 800257a:	d135      	bne.n	80025e8 <HAL_TIM_ConfigClockSource+0xa4>
                               sClockSourceConfig->ClockPolarity,
 800257c:	684d      	ldr	r5, [r1, #4]
                               sClockSourceConfig->ClockFilter);
 800257e:	68cb      	ldr	r3, [r1, #12]
{
  uint32_t tmpccmr1;
  uint32_t tmpccer;

  /* Disable the Channel 1: Reset the CC1E Bit */
  tmpccer = TIMx->CCER;
 8002580:	6a01      	ldr	r1, [r0, #32]
  TIMx->CCER &= ~TIM_CCER_CC1E;
 8002582:	6a06      	ldr	r6, [r0, #32]
  tmpccmr1 = TIMx->CCMR1;

  /* Set the filter */
  tmpccmr1 &= ~TIM_CCMR1_IC1F;
  tmpccmr1 |= (TIM_ICFilter << 4U);
 8002584:	011b      	lsls	r3, r3, #4
  TIMx->CCER &= ~TIM_CCER_CC1E;
 8002586:	43a6      	bics	r6, r4
 8002588:	6206      	str	r6, [r0, #32]
  tmpccmr1 &= ~TIM_CCMR1_IC1F;
 800258a:	26f0      	movs	r6, #240	@ 0xf0
  tmpccmr1 = TIMx->CCMR1;
 800258c:	6984      	ldr	r4, [r0, #24]
  tmpccmr1 &= ~TIM_CCMR1_IC1F;
 800258e:	43b4      	bics	r4, r6
  tmpccmr1 |= (TIM_ICFilter << 4U);
 8002590:	4323      	orrs	r3, r4

  /* Select the Polarity and set the CC1E Bit */
  tmpccer &= ~(TIM_CCER_CC1P | TIM_CCER_CC1NP);
 8002592:	240a      	movs	r4, #10
 8002594:	43a1      	bics	r1, r4
  tmpccer |= TIM_ICPolarity;
 8002596:	4329      	orrs	r1, r5

  /* Write to TIMx CCMR1 and CCER registers */
  TIMx->CCMR1 = tmpccmr1;
 8002598:	6183      	str	r3, [r0, #24]
  TIMx->CCER = tmpccer;
 800259a:	6201      	str	r1, [r0, #32]
static void TIM_ITRx_SetConfig(TIM_TypeDef *TIMx, uint32_t InputTriggerSource)
{
  uint32_t tmpsmcr;

  /* Get the TIMx SMCR register value */
  tmpsmcr = TIMx->SMCR;
 800259c:	6883      	ldr	r3, [r0, #8]
  /* Reset the TS Bits */
  tmpsmcr &= ~TIM_SMCR_TS;
 800259e:	4942      	ldr	r1, [pc, #264]	@ (80026a8 <HAL_TIM_ConfigClockSource+0x164>)
 80025a0:	400b      	ands	r3, r1
  /* Set the Input Trigger source and the slave mode*/
  tmpsmcr |= (InputTriggerSource | TIM_SLAVEMODE_EXTERNAL1);
 80025a2:	2157      	movs	r1, #87	@ 0x57
 80025a4:	430b      	orrs	r3, r1
  /* Write to TIMx SMCR */
  TIMx->SMCR = tmpsmcr;
 80025a6:	6083      	str	r3, [r0, #8]
  HAL_StatusTypeDef status = HAL_OK;
 80025a8:	2000      	movs	r0, #0
 80025aa:	e01e      	b.n	80025ea <HAL_TIM_ConfigClockSource+0xa6>
  switch (sClockSourceConfig->ClockSource)
 80025ac:	2480      	movs	r4, #128	@ 0x80
 80025ae:	0164      	lsls	r4, r4, #5
 80025b0:	42a3      	cmp	r3, r4
 80025b2:	d0f9      	beq.n	80025a8 <HAL_TIM_ConfigClockSource+0x64>
 80025b4:	2480      	movs	r4, #128	@ 0x80
 80025b6:	01a4      	lsls	r4, r4, #6
 80025b8:	42a3      	cmp	r3, r4
 80025ba:	d12b      	bne.n	8002614 <HAL_TIM_ConfigClockSource+0xd0>
void TIM_ETR_SetConfig(TIM_TypeDef *TIMx, uint32_t TIM_ExtTRGPrescaler,
                       uint32_t TIM_ExtTRGPolarity, uint32_t ExtTRGFilter)
{
  uint32_t tmpsmcr;

  tmpsmcr = TIMx->SMCR;
 80025bc:	6884      	ldr	r4, [r0, #8]

  /* Reset the ETR Bits */
  tmpsmcr &= ~(TIM_SMCR_ETF | TIM_SMCR_ETPS | TIM_SMCR_ECE | TIM_SMCR_ETP);
 80025be:	4b3b      	ldr	r3, [pc, #236]	@ (80026ac <HAL_TIM_ConfigClockSource+0x168>)

  /* Set the Prescaler, the Filter value and the Polarity */
  tmpsmcr |= (uint32_t)(TIM_ExtTRGPrescaler | (TIM_ExtTRGPolarity | (ExtTRGFilter << 8U)));
 80025c0:	684d      	ldr	r5, [r1, #4]
  tmpsmcr &= ~(TIM_SMCR_ETF | TIM_SMCR_ETPS | TIM_SMCR_ECE | TIM_SMCR_ETP);
 80025c2:	401c      	ands	r4, r3
  tmpsmcr |= (uint32_t)(TIM_ExtTRGPrescaler | (TIM_ExtTRGPolarity | (ExtTRGFilter << 8U)));
 80025c4:	688b      	ldr	r3, [r1, #8]
 80025c6:	68c9      	ldr	r1, [r1, #12]
 80025c8:	432b      	orrs	r3, r5
 80025ca:	0209      	lsls	r1, r1, #8
 80025cc:	430b      	orrs	r3, r1
 80025ce:	4323      	orrs	r3, r4

  /* Write to TIMx SMCR */
  TIMx->SMCR = tmpsmcr;
 80025d0:	6083      	str	r3, [r0, #8]
      htim->Instance->SMCR |= TIM_SMCR_ECE;
 80025d2:	2380      	movs	r3, #128	@ 0x80
 80025d4:	6881      	ldr	r1, [r0, #8]
 80025d6:	01db      	lsls	r3, r3, #7
 80025d8:	430b      	orrs	r3, r1
 80025da:	6083      	str	r3, [r0, #8]
  HAL_StatusTypeDef status = HAL_OK;
 80025dc:	2000      	movs	r0, #0
 80025de:	e004      	b.n	80025ea <HAL_TIM_ConfigClockSource+0xa6>
  switch (sClockSourceConfig->ClockSource)
 80025e0:	2110      	movs	r1, #16
 80025e2:	001c      	movs	r4, r3
 80025e4:	438c      	bics	r4, r1
 80025e6:	d00c      	beq.n	8002602 <HAL_TIM_ConfigClockSource+0xbe>
      status = HAL_ERROR;
 80025e8:	2001      	movs	r0, #1
  htim->State = HAL_TIM_STATE_READY;
 80025ea:	233d      	movs	r3, #61	@ 0x3d
 80025ec:	2101      	movs	r1, #1
 80025ee:	54d1      	strb	r1, [r2, r3]
  __HAL_UNLOCK(htim);
 80025f0:	2100      	movs	r1, #0
 80025f2:	3b01      	subs	r3, #1
 80025f4:	54d1      	strb	r1, [r2, r3]
}
 80025f6:	bd70      	pop	{r4, r5, r6, pc}
  switch (sClockSourceConfig->ClockSource)
 80025f8:	2b20      	cmp	r3, #32
 80025fa:	d002      	beq.n	8002602 <HAL_TIM_ConfigClockSource+0xbe>
 80025fc:	d9f0      	bls.n	80025e0 <HAL_TIM_ConfigClockSource+0x9c>
 80025fe:	2b30      	cmp	r3, #48	@ 0x30
 8002600:	d1f2      	bne.n	80025e8 <HAL_TIM_ConfigClockSource+0xa4>
  tmpsmcr = TIMx->SMCR;
 8002602:	6881      	ldr	r1, [r0, #8]
  tmpsmcr &= ~TIM_SMCR_TS;
 8002604:	4c28      	ldr	r4, [pc, #160]	@ (80026a8 <HAL_TIM_ConfigClockSource+0x164>)
 8002606:	4021      	ands	r1, r4
  tmpsmcr |= (InputTriggerSource | TIM_SLAVEMODE_EXTERNAL1);
 8002608:	430b      	orrs	r3, r1
 800260a:	2107      	movs	r1, #7
 800260c:	430b      	orrs	r3, r1
  TIMx->SMCR = tmpsmcr;
 800260e:	6083      	str	r3, [r0, #8]
  HAL_StatusTypeDef status = HAL_OK;
 8002610:	2000      	movs	r0, #0
 8002612:	e7ea      	b.n	80025ea <HAL_TIM_ConfigClockSource+0xa6>
  switch (sClockSourceConfig->ClockSource)
 8002614:	2b70      	cmp	r3, #112	@ 0x70
 8002616:	d1e7      	bne.n	80025e8 <HAL_TIM_ConfigClockSource+0xa4>
  tmpsmcr = TIMx->SMCR;
 8002618:	6884      	ldr	r4, [r0, #8]
  tmpsmcr &= ~(TIM_SMCR_ETF | TIM_SMCR_ETPS | TIM_SMCR_ECE | TIM_SMCR_ETP);
 800261a:	4b24      	ldr	r3, [pc, #144]	@ (80026ac <HAL_TIM_ConfigClockSource+0x168>)
  tmpsmcr |= (uint32_t)(TIM_ExtTRGPrescaler | (TIM_ExtTRGPolarity | (ExtTRGFilter << 8U)));
 800261c:	684d      	ldr	r5, [r1, #4]
  tmpsmcr &= ~(TIM_SMCR_ETF | TIM_SMCR_ETPS | TIM_SMCR_ECE | TIM_SMCR_ETP);
 800261e:	401c      	ands	r4, r3
  tmpsmcr |= (uint32_t)(TIM_ExtTRGPrescaler | (TIM_ExtTRGPolarity | (ExtTRGFilter << 8U)));
 8002620:	688b      	ldr	r3, [r1, #8]
 8002622:	68c9      	ldr	r1, [r1, #12]
 8002624:	432b      	orrs	r3, r5
 8002626:	0209      	lsls	r1, r1, #8
 8002628:	430b      	orrs	r3, r1
      tmpsmcr |= (TIM_SLAVEMODE_EXTERNAL1 | TIM_CLOCKSOURCE_ETRMODE1);
 800262a:	2177      	movs	r1, #119	@ 0x77
  tmpsmcr |= (uint32_t)(TIM_ExtTRGPrescaler | (TIM_ExtTRGPolarity | (ExtTRGFilter << 8U)));
 800262c:	4323      	orrs	r3, r4
  TIMx->SMCR = tmpsmcr;
 800262e:	6083      	str	r3, [r0, #8]
      tmpsmcr = htim->Instance->SMCR;
 8002630:	6883      	ldr	r3, [r0, #8]
      tmpsmcr |= (TIM_SLAVEMODE_EXTERNAL1 | TIM_CLOCKSOURCE_ETRMODE1);
 8002632:	430b      	orrs	r3, r1
      htim->Instance->SMCR = tmpsmcr;
 8002634:	6083      	str	r3, [r0, #8]
  HAL_StatusTypeDef status = HAL_OK;
 8002636:	2000      	movs	r0, #0
 8002638:	e7d7      	b.n	80025ea <HAL_TIM_ConfigClockSource+0xa6>
  __HAL_LOCK(htim);
 800263a:	2002      	movs	r0, #2
 800263c:	e7db      	b.n	80025f6 <HAL_TIM_ConfigClockSource+0xb2>
  TIMx->CCER &= ~TIM_CCER_CC2E;
 800263e:	2610      	movs	r6, #16
  tmpccer = TIMx->CCER;
 8002640:	6a04      	ldr	r4, [r0, #32]
  TIMx->CCER &= ~TIM_CCER_CC2E;
 8002642:	6a05      	ldr	r5, [r0, #32]
                               sClockSourceConfig->ClockPolarity,
 8002644:	684b      	ldr	r3, [r1, #4]
  TIMx->CCER &= ~TIM_CCER_CC2E;
 8002646:	43b5      	bics	r5, r6
                               sClockSourceConfig->ClockFilter);
 8002648:	68c9      	ldr	r1, [r1, #12]
  TIMx->CCER &= ~TIM_CCER_CC2E;
 800264a:	6205      	str	r5, [r0, #32]
  tmpccmr1 = TIMx->CCMR1;
 800264c:	6985      	ldr	r5, [r0, #24]
  tmpccmr1 &= ~TIM_CCMR1_IC2F;
 800264e:	4e18      	ldr	r6, [pc, #96]	@ (80026b0 <HAL_TIM_ConfigClockSource+0x16c>)
  tmpccmr1 |= (TIM_ICFilter << 12U);
 8002650:	0309      	lsls	r1, r1, #12
  tmpccmr1 &= ~TIM_CCMR1_IC2F;
 8002652:	4035      	ands	r5, r6
  tmpccmr1 |= (TIM_ICFilter << 12U);
 8002654:	4329      	orrs	r1, r5
  tmpccer &= ~(TIM_CCER_CC2P | TIM_CCER_CC2NP);
 8002656:	25a0      	movs	r5, #160	@ 0xa0
  tmpccer |= (TIM_ICPolarity << 4U);
 8002658:	011b      	lsls	r3, r3, #4
  tmpccer &= ~(TIM_CCER_CC2P | TIM_CCER_CC2NP);
 800265a:	43ac      	bics	r4, r5
  tmpccer |= (TIM_ICPolarity << 4U);
 800265c:	4323      	orrs	r3, r4
  TIMx->CCMR1 = tmpccmr1 ;
 800265e:	6181      	str	r1, [r0, #24]
  TIMx->CCER = tmpccer;
 8002660:	6203      	str	r3, [r0, #32]
  tmpsmcr = TIMx->SMCR;
 8002662:	6883      	ldr	r3, [r0, #8]
  tmpsmcr &= ~TIM_SMCR_TS;
 8002664:	4910      	ldr	r1, [pc, #64]	@ (80026a8 <HAL_TIM_ConfigClockSource+0x164>)
 8002666:	400b      	ands	r3, r1
  tmpsmcr |= (InputTriggerSource | TIM_SLAVEMODE_EXTERNAL1);
 8002668:	2167      	movs	r1, #103	@ 0x67
 800266a:	430b      	orrs	r3, r1
  TIMx->SMCR = tmpsmcr;
 800266c:	6083      	str	r3, [r0, #8]
  HAL_StatusTypeDef status = HAL_OK;
 800266e:	2000      	movs	r0, #0
 8002670:	e7bb      	b.n	80025ea <HAL_TIM_ConfigClockSource+0xa6>
                               sClockSourceConfig->ClockPolarity,
 8002672:	684d      	ldr	r5, [r1, #4]
                               sClockSourceConfig->ClockFilter);
 8002674:	68cb      	ldr	r3, [r1, #12]
  tmpccer = TIMx->CCER;
 8002676:	6a01      	ldr	r1, [r0, #32]
  TIMx->CCER &= ~TIM_CCER_CC1E;
 8002678:	6a06      	ldr	r6, [r0, #32]
  tmpccmr1 |= (TIM_ICFilter << 4U);
 800267a:	011b      	lsls	r3, r3, #4
  TIMx->CCER &= ~TIM_CCER_CC1E;
 800267c:	43a6      	bics	r6, r4
 800267e:	6206      	str	r6, [r0, #32]
  tmpccmr1 &= ~TIM_CCMR1_IC1F;
 8002680:	26f0      	movs	r6, #240	@ 0xf0
  tmpccmr1 = TIMx->CCMR1;
 8002682:	6984      	ldr	r4, [r0, #24]
  tmpccmr1 &= ~TIM_CCMR1_IC1F;
 8002684:	43b4      	bics	r4, r6
  tmpccmr1 |= (TIM_ICFilter << 4U);
 8002686:	4323      	orrs	r3, r4
  tmpccer &= ~(TIM_CCER_CC1P | TIM_CCER_CC1NP);
 8002688:	240a      	movs	r4, #10
 800268a:	43a1      	bics	r1, r4
  tmpccer |= TIM_ICPolarity;
 800268c:	4329      	orrs	r1, r5
  TIMx->CCMR1 = tmpccmr1;
 800268e:	6183      	str	r3, [r0, #24]
  TIMx->CCER = tmpccer;
 8002690:	6201      	str	r1, [r0, #32]
  tmpsmcr = TIMx->SMCR;
 8002692:	6883      	ldr	r3, [r0, #8]
  tmpsmcr &= ~TIM_SMCR_TS;
 8002694:	4904      	ldr	r1, [pc, #16]	@ (80026a8 <HAL_TIM_ConfigClockSource+0x164>)
 8002696:	400b      	ands	r3, r1
  tmpsmcr |= (InputTriggerSource | TIM_SLAVEMODE_EXTERNAL1);
 8002698:	2147      	movs	r1, #71	@ 0x47
 800269a:	430b      	orrs	r3, r1
  TIMx->SMCR = tmpsmcr;
 800269c:	6083      	str	r3, [r0, #8]
  HAL_StatusTypeDef status = HAL_OK;
 800269e:	2000      	movs	r0, #0
 80026a0:	e7a3      	b.n	80025ea <HAL_TIM_ConfigClockSource+0xa6>
 80026a2:	46c0      	nop			@ (mov r8, r8)
 80026a4:	ffce0088 	.word	0xffce0088
 80026a8:	ffcfff8f 	.word	0xffcfff8f
 80026ac:	ffff00ff 	.word	0xffff00ff
 80026b0:	ffff0fff 	.word	0xffff0fff

080026b4 <HAL_TIM_PeriodElapsedCallback>:
__weak void HAL_TIM_PeriodElapsedCallback(TIM_HandleTypeDef *htim)
 80026b4:	4770      	bx	lr
 80026b6:	46c0      	nop			@ (mov r8, r8)

080026b8 <HAL_TIM_OC_DelayElapsedCallback>:
__weak void HAL_TIM_OC_DelayElapsedCallback(TIM_HandleTypeDef *htim)
 80026b8:	4770      	bx	lr
 80026ba:	46c0      	nop			@ (mov r8, r8)

080026bc <HAL_TIM_IC_CaptureCallback>:
__weak void HAL_TIM_IC_CaptureCallback(TIM_HandleTypeDef *htim)
 80026bc:	4770      	bx	lr
 80026be:	46c0      	nop			@ (mov r8, r8)

080026c0 <HAL_TIM_PWM_PulseFinishedCallback>:
__weak void HAL_TIM_PWM_PulseFinishedCallback(TIM_HandleTypeDef *htim)
 80026c0:	4770      	bx	lr
 80026c2:	46c0      	nop			@ (mov r8, r8)

080026c4 <HAL_TIM_TriggerCallback>:
__weak void HAL_TIM_TriggerCallback(TIM_HandleTypeDef *htim)
 80026c4:	4770      	bx	lr
 80026c6:	46c0      	nop			@ (mov r8, r8)

080026c8 <HAL_TIM_IRQHandler>:
  if ((itflag & (TIM_FLAG_CC1)) == (TIM_FLAG_CC1))
 80026c8:	2202      	movs	r2, #2
{
 80026ca:	b5f8      	push	{r3, r4, r5, r6, r7, lr}
  uint32_t itsource = htim->Instance->DIER;
 80026cc:	6803      	ldr	r3, [r0, #0]
{
 80026ce:	0005      	movs	r5, r0
  uint32_t itsource = htim->Instance->DIER;
 80026d0:	68de      	ldr	r6, [r3, #12]
  uint32_t itflag   = htim->Instance->SR;
 80026d2:	691c      	ldr	r4, [r3, #16]
  if ((itflag & (TIM_FLAG_CC1)) == (TIM_FLAG_CC1))
 80026d4:	4222      	tst	r2, r4
 80026d6:	d001      	beq.n	80026dc <HAL_TIM_IRQHandler+0x14>
    if ((itsource & (TIM_IT_CC1)) == (TIM_IT_CC1))
 80026d8:	4232      	tst	r2, r6
 80026da:	d162      	bne.n	80027a2 <HAL_TIM_IRQHandler+0xda>
  if ((itflag & (TIM_FLAG_CC2)) == (TIM_FLAG_CC2))
 80026dc:	2304      	movs	r3, #4
 80026de:	4223      	tst	r3, r4
 80026e0:	d001      	beq.n	80026e6 <HAL_TIM_IRQHandler+0x1e>
    if ((itsource & (TIM_IT_CC2)) == (TIM_IT_CC2))
 80026e2:	4233      	tst	r3, r6
 80026e4:	d149      	bne.n	800277a <HAL_TIM_IRQHandler+0xb2>
  if ((itflag & (TIM_FLAG_CC3)) == (TIM_FLAG_CC3))
 80026e6:	2308      	movs	r3, #8
 80026e8:	4223      	tst	r3, r4
 80026ea:	d001      	beq.n	80026f0 <HAL_TIM_IRQHandler+0x28>
    if ((itsource & (TIM_IT_CC3)) == (TIM_IT_CC3))
 80026ec:	4233      	tst	r3, r6
 80026ee:	d132      	bne.n	8002756 <HAL_TIM_IRQHandler+0x8e>
  if ((itflag & (TIM_FLAG_CC4)) == (TIM_FLAG_CC4))
 80026f0:	2310      	movs	r3, #16
 80026f2:	4223      	tst	r3, r4
 80026f4:	d001      	beq.n	80026fa <HAL_TIM_IRQHandler+0x32>
    if ((itsource & (TIM_IT_CC4)) == (TIM_IT_CC4))
 80026f6:	4233      	tst	r3, r6
 80026f8:	d119      	bne.n	800272e <HAL_TIM_IRQHandler+0x66>
  if ((itflag & (TIM_FLAG_UPDATE)) == (TIM_FLAG_UPDATE))
 80026fa:	2301      	movs	r3, #1
 80026fc:	4223      	tst	r3, r4
 80026fe:	d001      	beq.n	8002704 <HAL_TIM_IRQHandler+0x3c>
    if ((itsource & (TIM_IT_UPDATE)) == (TIM_IT_UPDATE))
 8002700:	4233      	tst	r3, r6
 8002702:	d16a      	bne.n	80027da <HAL_TIM_IRQHandler+0x112>
  if ((itflag & (TIM_FLAG_BREAK2)) == (TIM_FLAG_BREAK2))
 8002704:	2780      	movs	r7, #128	@ 0x80
  if (((itflag & (TIM_FLAG_BREAK)) == (TIM_FLAG_BREAK)) || \
 8002706:	2382      	movs	r3, #130	@ 0x82
  if ((itflag & (TIM_FLAG_BREAK2)) == (TIM_FLAG_BREAK2))
 8002708:	007f      	lsls	r7, r7, #1
  if (((itflag & (TIM_FLAG_BREAK)) == (TIM_FLAG_BREAK)) || \
 800270a:	019b      	lsls	r3, r3, #6
  if ((itflag & (TIM_FLAG_BREAK2)) == (TIM_FLAG_BREAK2))
 800270c:	4027      	ands	r7, r4
  if (((itflag & (TIM_FLAG_BREAK)) == (TIM_FLAG_BREAK)) || \
 800270e:	421c      	tst	r4, r3
 8002710:	d056      	beq.n	80027c0 <HAL_TIM_IRQHandler+0xf8>
    if ((itsource & (TIM_IT_BREAK)) == (TIM_IT_BREAK))
 8002712:	0633      	lsls	r3, r6, #24
 8002714:	d469      	bmi.n	80027ea <HAL_TIM_IRQHandler+0x122>
  if ((itflag & (TIM_FLAG_TRIGGER)) == (TIM_FLAG_TRIGGER))
 8002716:	2340      	movs	r3, #64	@ 0x40
 8002718:	4223      	tst	r3, r4
 800271a:	d002      	beq.n	8002722 <HAL_TIM_IRQHandler+0x5a>
    if ((itsource & (TIM_IT_TRIGGER)) == (TIM_IT_TRIGGER))
 800271c:	4233      	tst	r3, r6
 800271e:	d000      	beq.n	8002722 <HAL_TIM_IRQHandler+0x5a>
 8002720:	e073      	b.n	800280a <HAL_TIM_IRQHandler+0x142>
  if ((itflag & (TIM_FLAG_COM)) == (TIM_FLAG_COM))
 8002722:	2320      	movs	r3, #32
 8002724:	4223      	tst	r3, r4
 8002726:	d001      	beq.n	800272c <HAL_TIM_IRQHandler+0x64>
    if ((itsource & (TIM_IT_COM)) == (TIM_IT_COM))
 8002728:	4233      	tst	r3, r6
 800272a:	d14e      	bne.n	80027ca <HAL_TIM_IRQHandler+0x102>
}
 800272c:	bdf8      	pop	{r3, r4, r5, r6, r7, pc}
      __HAL_TIM_CLEAR_FLAG(htim, TIM_FLAG_CC4);
 800272e:	2211      	movs	r2, #17
 8002730:	682b      	ldr	r3, [r5, #0]
 8002732:	4252      	negs	r2, r2
 8002734:	611a      	str	r2, [r3, #16]
      htim->Channel = HAL_TIM_ACTIVE_CHANNEL_4;
 8002736:	3219      	adds	r2, #25
 8002738:	772a      	strb	r2, [r5, #28]
      if ((htim->Instance->CCMR2 & TIM_CCMR2_CC4S) != 0x00U)
 800273a:	69da      	ldr	r2, [r3, #28]
 800273c:	23c0      	movs	r3, #192	@ 0xc0
 800273e:	009b      	lsls	r3, r3, #2
        HAL_TIM_IC_CaptureCallback(htim);
 8002740:	0028      	movs	r0, r5
      if ((htim->Instance->CCMR2 & TIM_CCMR2_CC4S) != 0x00U)
 8002742:	421a      	tst	r2, r3
 8002744:	d172      	bne.n	800282c <HAL_TIM_IRQHandler+0x164>
        HAL_TIM_OC_DelayElapsedCallback(htim);
 8002746:	f7ff ffb7 	bl	80026b8 <HAL_TIM_OC_DelayElapsedCallback>
        HAL_TIM_PWM_PulseFinishedCallback(htim);
 800274a:	0028      	movs	r0, r5
 800274c:	f7ff ffb8 	bl	80026c0 <HAL_TIM_PWM_PulseFinishedCallback>
      htim->Channel = HAL_TIM_ACTIVE_CHANNEL_CLEARED;
 8002750:	2300      	movs	r3, #0
 8002752:	772b      	strb	r3, [r5, #28]
 8002754:	e7d1      	b.n	80026fa <HAL_TIM_IRQHandler+0x32>
      __HAL_TIM_CLEAR_FLAG(htim, TIM_FLAG_CC3);
 8002756:	2209      	movs	r2, #9
 8002758:	682b      	ldr	r3, [r5, #0]
 800275a:	4252      	negs	r2, r2
 800275c:	611a      	str	r2, [r3, #16]
      htim->Channel = HAL_TIM_ACTIVE_CHANNEL_3;
 800275e:	320d      	adds	r2, #13
 8002760:	772a      	strb	r2, [r5, #28]
      if ((htim->Instance->CCMR2 & TIM_CCMR2_CC3S) != 0x00U)
 8002762:	69db      	ldr	r3, [r3, #28]
        HAL_TIM_IC_CaptureCallback(htim);
 8002764:	0028      	movs	r0, r5
      if ((htim->Instance->CCMR2 & TIM_CCMR2_CC3S) != 0x00U)
 8002766:	079b      	lsls	r3, r3, #30
 8002768:	d15d      	bne.n	8002826 <HAL_TIM_IRQHandler+0x15e>
        HAL_TIM_OC_DelayElapsedCallback(htim);
 800276a:	f7ff ffa5 	bl	80026b8 <HAL_TIM_OC_DelayElapsedCallback>
        HAL_TIM_PWM_PulseFinishedCallback(htim);
 800276e:	0028      	movs	r0, r5
 8002770:	f7ff ffa6 	bl	80026c0 <HAL_TIM_PWM_PulseFinishedCallback>
      htim->Channel = HAL_TIM_ACTIVE_CHANNEL_CLEARED;
 8002774:	2300      	movs	r3, #0
 8002776:	772b      	strb	r3, [r5, #28]
 8002778:	e7ba      	b.n	80026f0 <HAL_TIM_IRQHandler+0x28>
      __HAL_TIM_CLEAR_FLAG(htim, TIM_FLAG_CC2);
 800277a:	2205      	movs	r2, #5
 800277c:	682b      	ldr	r3, [r5, #0]
 800277e:	4252      	negs	r2, r2
 8002780:	611a      	str	r2, [r3, #16]
      htim->Channel = HAL_TIM_ACTIVE_CHANNEL_2;
 8002782:	3207      	adds	r2, #7
 8002784:	772a      	strb	r2, [r5, #28]
      if ((htim->Instance->CCMR1 & TIM_CCMR1_CC2S) != 0x00U)
 8002786:	699a      	ldr	r2, [r3, #24]
 8002788:	23c0      	movs	r3, #192	@ 0xc0
 800278a:	009b      	lsls	r3, r3, #2
        HAL_TIM_IC_CaptureCallback(htim);
 800278c:	0028      	movs	r0, r5
      if ((htim->Instance->CCMR1 & TIM_CCMR1_CC2S) != 0x00U)
 800278e:	421a      	tst	r2, r3
 8002790:	d146      	bne.n	8002820 <HAL_TIM_IRQHandler+0x158>
        HAL_TIM_OC_DelayElapsedCallback(htim);
 8002792:	f7ff ff91 	bl	80026b8 <HAL_TIM_OC_DelayElapsedCallback>
        HAL_TIM_PWM_PulseFinishedCallback(htim);
 8002796:	0028      	movs	r0, r5
 8002798:	f7ff ff92 	bl	80026c0 <HAL_TIM_PWM_PulseFinishedCallback>
      htim->Channel = HAL_TIM_ACTIVE_CHANNEL_CLEARED;
 800279c:	2300      	movs	r3, #0
 800279e:	772b      	strb	r3, [r5, #28]
 80027a0:	e7a1      	b.n	80026e6 <HAL_TIM_IRQHandler+0x1e>
        __HAL_TIM_CLEAR_FLAG(htim, TIM_FLAG_CC1);
 80027a2:	3a05      	subs	r2, #5
 80027a4:	611a      	str	r2, [r3, #16]
        htim->Channel = HAL_TIM_ACTIVE_CHANNEL_1;
 80027a6:	3204      	adds	r2, #4
 80027a8:	7702      	strb	r2, [r0, #28]
        if ((htim->Instance->CCMR1 & TIM_CCMR1_CC1S) != 0x00U)
 80027aa:	699b      	ldr	r3, [r3, #24]
 80027ac:	079b      	lsls	r3, r3, #30
 80027ae:	d134      	bne.n	800281a <HAL_TIM_IRQHandler+0x152>
          HAL_TIM_OC_DelayElapsedCallback(htim);
 80027b0:	f7ff ff82 	bl	80026b8 <HAL_TIM_OC_DelayElapsedCallback>
          HAL_TIM_PWM_PulseFinishedCallback(htim);
 80027b4:	0028      	movs	r0, r5
 80027b6:	f7ff ff83 	bl	80026c0 <HAL_TIM_PWM_PulseFinishedCallback>
        htim->Channel = HAL_TIM_ACTIVE_CHANNEL_CLEARED;
 80027ba:	2300      	movs	r3, #0
 80027bc:	772b      	strb	r3, [r5, #28]
 80027be:	e78d      	b.n	80026dc <HAL_TIM_IRQHandler+0x14>
  if ((itflag & (TIM_FLAG_BREAK2)) == (TIM_FLAG_BREAK2))
 80027c0:	2f00      	cmp	r7, #0
 80027c2:	d0a8      	beq.n	8002716 <HAL_TIM_IRQHandler+0x4e>
    if ((itsource & (TIM_IT_BREAK)) == (TIM_IT_BREAK))
 80027c4:	0633      	lsls	r3, r6, #24
 80027c6:	d5a6      	bpl.n	8002716 <HAL_TIM_IRQHandler+0x4e>
 80027c8:	e018      	b.n	80027fc <HAL_TIM_IRQHandler+0x134>
      __HAL_TIM_CLEAR_FLAG(htim, TIM_FLAG_COM);
 80027ca:	2221      	movs	r2, #33	@ 0x21
 80027cc:	682b      	ldr	r3, [r5, #0]
 80027ce:	4252      	negs	r2, r2
      HAL_TIMEx_CommutCallback(htim);
 80027d0:	0028      	movs	r0, r5
      __HAL_TIM_CLEAR_FLAG(htim, TIM_FLAG_COM);
 80027d2:	611a      	str	r2, [r3, #16]
      HAL_TIMEx_CommutCallback(htim);
 80027d4:	f000 f866 	bl	80028a4 <HAL_TIMEx_CommutCallback>
}
 80027d8:	e7a8      	b.n	800272c <HAL_TIM_IRQHandler+0x64>
      __HAL_TIM_CLEAR_FLAG(htim, TIM_FLAG_UPDATE);
 80027da:	2202      	movs	r2, #2
 80027dc:	682b      	ldr	r3, [r5, #0]
 80027de:	4252      	negs	r2, r2
      HAL_TIM_PeriodElapsedCallback(htim);
 80027e0:	0028      	movs	r0, r5
      __HAL_TIM_CLEAR_FLAG(htim, TIM_FLAG_UPDATE);
 80027e2:	611a      	str	r2, [r3, #16]
      HAL_TIM_PeriodElapsedCallback(htim);
 80027e4:	f7ff ff66 	bl	80026b4 <HAL_TIM_PeriodElapsedCallback>
 80027e8:	e78c      	b.n	8002704 <HAL_TIM_IRQHandler+0x3c>
      __HAL_TIM_CLEAR_FLAG(htim, TIM_FLAG_BREAK | TIM_FLAG_SYSTEM_BREAK);
 80027ea:	682b      	ldr	r3, [r5, #0]
 80027ec:	4a11      	ldr	r2, [pc, #68]	@ (8002834 <HAL_TIM_IRQHandler+0x16c>)
      HAL_TIMEx_BreakCallback(htim);
 80027ee:	0028      	movs	r0, r5
      __HAL_TIM_CLEAR_FLAG(htim, TIM_FLAG_BREAK | TIM_FLAG_SYSTEM_BREAK);
 80027f0:	611a      	str	r2, [r3, #16]
      HAL_TIMEx_BreakCallback(htim);
 80027f2:	f000 f859 	bl	80028a8 <HAL_TIMEx_BreakCallback>
  if ((itflag & (TIM_FLAG_BREAK2)) == (TIM_FLAG_BREAK2))
 80027f6:	2f00      	cmp	r7, #0
 80027f8:	d100      	bne.n	80027fc <HAL_TIM_IRQHandler+0x134>
 80027fa:	e78c      	b.n	8002716 <HAL_TIM_IRQHandler+0x4e>
      __HAL_TIM_CLEAR_FLAG(htim, TIM_FLAG_BREAK2);
 80027fc:	682b      	ldr	r3, [r5, #0]
 80027fe:	4a0e      	ldr	r2, [pc, #56]	@ (8002838 <HAL_TIM_IRQHandler+0x170>)
      HAL_TIMEx_Break2Callback(htim);
 8002800:	0028      	movs	r0, r5
      __HAL_TIM_CLEAR_FLAG(htim, TIM_FLAG_BREAK2);
 8002802:	611a      	str	r2, [r3, #16]
      HAL_TIMEx_Break2Callback(htim);
 8002804:	f000 f852 	bl	80028ac <HAL_TIMEx_Break2Callback>
 8002808:	e785      	b.n	8002716 <HAL_TIM_IRQHandler+0x4e>
      __HAL_TIM_CLEAR_FLAG(htim, TIM_FLAG_TRIGGER);
 800280a:	2241      	movs	r2, #65	@ 0x41
 800280c:	682b      	ldr	r3, [r5, #0]
 800280e:	4252      	negs	r2, r2
      HAL_TIM_TriggerCallback(htim);
 8002810:	0028      	movs	r0, r5
      __HAL_TIM_CLEAR_FLAG(htim, TIM_FLAG_TRIGGER);
 8002812:	611a      	str	r2, [r3, #16]
      HAL_TIM_TriggerCallback(htim);
 8002814:	f7ff ff56 	bl	80026c4 <HAL_TIM_TriggerCallback>
 8002818:	e783      	b.n	8002722 <HAL_TIM_IRQHandler+0x5a>
          HAL_TIM_IC_CaptureCallback(htim);
 800281a:	f7ff ff4f 	bl	80026bc <HAL_TIM_IC_CaptureCallback>
 800281e:	e7cc      	b.n	80027ba <HAL_TIM_IRQHandler+0xf2>
        HAL_TIM_IC_CaptureCallback(htim);
 8002820:	f7ff ff4c 	bl	80026bc <HAL_TIM_IC_CaptureCallback>
 8002824:	e7ba      	b.n	800279c <HAL_TIM_IRQHandler+0xd4>
        HAL_TIM_IC_CaptureCallback(htim);
 8002826:	f7ff ff49 	bl	80026bc <HAL_TIM_IC_CaptureCallback>
 800282a:	e7a3      	b.n	8002774 <HAL_TIM_IRQHandler+0xac>
        HAL_TIM_IC_CaptureCallback(htim);
 800282c:	f7ff ff46 	bl	80026bc <HAL_TIM_IC_CaptureCallback>
 8002830:	e78e      	b.n	8002750 <HAL_TIM_IRQHandler+0x88>
 8002832:	46c0      	nop			@ (mov r8, r8)
 8002834:	ffffdf7f 	.word	0xffffdf7f
 8002838:	fffffeff 	.word	0xfffffeff

0800283c <HAL_TIMEx_MasterConfigSynchronization>:
  assert_param(IS_TIM_MASTER_INSTANCE(htim->Instance));
  assert_param(IS_TIM_TRGO_SOURCE(sMasterConfig->MasterOutputTrigger));
  assert_param(IS_TIM_MSM_STATE(sMasterConfig->MasterSlaveMode));

  /* Check input state */
  __HAL_LOCK(htim);
 800283c:	233c      	movs	r3, #60	@ 0x3c
{
 800283e:	b570      	push	{r4, r5, r6, lr}
  __HAL_LOCK(htim);
 8002840:	5cc3      	ldrb	r3, [r0, r3]
 8002842:	2b01      	cmp	r3, #1
 8002844:	d026      	beq.n	8002894 <HAL_TIMEx_MasterConfigSynchronization+0x58>

  /* Change the handler state */
  htim->State = HAL_TIM_STATE_BUSY;
 8002846:	233d      	movs	r3, #61	@ 0x3d
 8002848:	2202      	movs	r2, #2
 800284a:	54c2      	strb	r2, [r0, r3]

  /* Get the TIMx CR2 register value */
  tmpcr2 = htim->Instance->CR2;
 800284c:	6802      	ldr	r2, [r0, #0]

  /* Get the TIMx SMCR register value */
  tmpsmcr = htim->Instance->SMCR;

  /* If the timer supports ADC synchronization through TRGO2, set the master mode selection 2 */
  if (IS_TIM_TRGO2_INSTANCE(htim->Instance))
 800284e:	4d12      	ldr	r5, [pc, #72]	@ (8002898 <HAL_TIMEx_MasterConfigSynchronization+0x5c>)
  tmpcr2 = htim->Instance->CR2;
 8002850:	6853      	ldr	r3, [r2, #4]
  }

  /* Reset the MMS Bits */
  tmpcr2 &= ~TIM_CR2_MMS;
  /* Select the TRGO source */
  tmpcr2 |=  sMasterConfig->MasterOutputTrigger;
 8002852:	680e      	ldr	r6, [r1, #0]
  tmpsmcr = htim->Instance->SMCR;
 8002854:	6894      	ldr	r4, [r2, #8]
  if (IS_TIM_TRGO2_INSTANCE(htim->Instance))
 8002856:	42aa      	cmp	r2, r5
 8002858:	d00e      	beq.n	8002878 <HAL_TIMEx_MasterConfigSynchronization+0x3c>
  tmpcr2 &= ~TIM_CR2_MMS;
 800285a:	2570      	movs	r5, #112	@ 0x70
 800285c:	43ab      	bics	r3, r5
  tmpcr2 |=  sMasterConfig->MasterOutputTrigger;
 800285e:	4333      	orrs	r3, r6

  /* Update TIMx CR2 */
  htim->Instance->CR2 = tmpcr2;
 8002860:	6053      	str	r3, [r2, #4]

  if (IS_TIM_SLAVE_INSTANCE(htim->Instance))
 8002862:	4b0e      	ldr	r3, [pc, #56]	@ (800289c <HAL_TIMEx_MasterConfigSynchronization+0x60>)
 8002864:	429a      	cmp	r2, r3
 8002866:	d00f      	beq.n	8002888 <HAL_TIMEx_MasterConfigSynchronization+0x4c>
    /* Update TIMx SMCR */
    htim->Instance->SMCR = tmpsmcr;
  }

  /* Change the htim state */
  htim->State = HAL_TIM_STATE_READY;
 8002868:	233d      	movs	r3, #61	@ 0x3d
 800286a:	2201      	movs	r2, #1
 800286c:	54c2      	strb	r2, [r0, r3]

  __HAL_UNLOCK(htim);
 800286e:	2200      	movs	r2, #0
 8002870:	3b01      	subs	r3, #1
 8002872:	54c2      	strb	r2, [r0, r3]

  return HAL_OK;
 8002874:	2000      	movs	r0, #0
}
 8002876:	bd70      	pop	{r4, r5, r6, pc}
    tmpcr2 &= ~TIM_CR2_MMS2;
 8002878:	4d09      	ldr	r5, [pc, #36]	@ (80028a0 <HAL_TIMEx_MasterConfigSynchronization+0x64>)
 800287a:	402b      	ands	r3, r5
    tmpcr2 |= sMasterConfig->MasterOutputTrigger2;
 800287c:	684d      	ldr	r5, [r1, #4]
 800287e:	432b      	orrs	r3, r5
  tmpcr2 &= ~TIM_CR2_MMS;
 8002880:	2570      	movs	r5, #112	@ 0x70
 8002882:	43ab      	bics	r3, r5
  tmpcr2 |=  sMasterConfig->MasterOutputTrigger;
 8002884:	4333      	orrs	r3, r6
  htim->Instance->CR2 = tmpcr2;
 8002886:	6053      	str	r3, [r2, #4]
    tmpsmcr &= ~TIM_SMCR_MSM;
 8002888:	2380      	movs	r3, #128	@ 0x80
 800288a:	439c      	bics	r4, r3
    tmpsmcr |= sMasterConfig->MasterSlaveMode;
 800288c:	688b      	ldr	r3, [r1, #8]
 800288e:	431c      	orrs	r4, r3
    htim->Instance->SMCR = tmpsmcr;
 8002890:	6094      	str	r4, [r2, #8]
 8002892:	e7e9      	b.n	8002868 <HAL_TIMEx_MasterConfigSynchronization+0x2c>
  __HAL_LOCK(htim);
 8002894:	2002      	movs	r0, #2
 8002896:	e7ee      	b.n	8002876 <HAL_TIMEx_MasterConfigSynchronization+0x3a>
 8002898:	40012c00 	.word	0x40012c00
 800289c:	40000400 	.word	0x40000400
 80028a0:	ff0fffff 	.word	0xff0fffff

080028a4 <HAL_TIMEx_CommutCallback>:
/**
  * @brief  Commutation callback in non-blocking mode
  * @param  htim TIM handle
  * @retval None
  */
__weak void HAL_TIMEx_CommutCallback(TIM_HandleTypeDef *htim)
 80028a4:	4770      	bx	lr
 80028a6:	46c0      	nop			@ (mov r8, r8)

080028a8 <HAL_TIMEx_BreakCallback>:
/**
  * @brief  Break detection callback in non-blocking mode
  * @param  htim TIM handle
  * @retval None
  */
__weak void HAL_TIMEx_BreakCallback(TIM_HandleTypeDef *htim)
 80028a8:	4770      	bx	lr
 80028aa:	46c0      	nop			@ (mov r8, r8)

080028ac <HAL_TIMEx_Break2Callback>:
/**
  * @brief  Break2 detection callback in non blocking mode
  * @param  htim: TIM handle
  * @retval None
  */
__weak void HAL_TIMEx_Break2Callback(TIM_HandleTypeDef *htim)
 80028ac:	4770      	bx	lr
 80028ae:	46c0      	nop			@ (mov r8, r8)

080028b0 <UART_AdvFeatureConfig>:
{
  /* Check whether the set of advanced features to configure is properly set */
  assert_param(IS_UART_ADVFEATURE_INIT(huart->AdvancedInit.AdvFeatureInit));

  /* if required, configure RX/TX pins swap */
  if (HAL_IS_BIT_SET(huart->AdvancedInit.AdvFeatureInit, UART_ADVFEATURE_SWAP_INIT))
 80028b0:	6a83      	ldr	r3, [r0, #40]	@ 0x28
{
 80028b2:	b530      	push	{r4, r5, lr}
  if (HAL_IS_BIT_SET(huart->AdvancedInit.AdvFeatureInit, UART_ADVFEATURE_SWAP_INIT))
 80028b4:	071a      	lsls	r2, r3, #28
 80028b6:	d506      	bpl.n	80028c6 <UART_AdvFeatureConfig+0x16>
  {
    assert_param(IS_UART_ADVFEATURE_SWAP(huart->AdvancedInit.Swap));
    MODIFY_REG(huart->Instance->CR2, USART_CR2_SWAP, huart->AdvancedInit.Swap);
 80028b8:	6801      	ldr	r1, [r0, #0]
 80028ba:	4c28      	ldr	r4, [pc, #160]	@ (800295c <UART_AdvFeatureConfig+0xac>)
 80028bc:	684a      	ldr	r2, [r1, #4]
 80028be:	4022      	ands	r2, r4
 80028c0:	6b84      	ldr	r4, [r0, #56]	@ 0x38
 80028c2:	4322      	orrs	r2, r4
 80028c4:	604a      	str	r2, [r1, #4]
  }

  /* if required, configure TX pin active level inversion */
  if (HAL_IS_BIT_SET(huart->AdvancedInit.AdvFeatureInit, UART_ADVFEATURE_TXINVERT_INIT))
 80028c6:	07da      	lsls	r2, r3, #31
 80028c8:	d506      	bpl.n	80028d8 <UART_AdvFeatureConfig+0x28>
  {
    assert_param(IS_UART_ADVFEATURE_TXINV(huart->AdvancedInit.TxPinLevelInvert));
    MODIFY_REG(huart->Instance->CR2, USART_CR2_TXINV, huart->AdvancedInit.TxPinLevelInvert);
 80028ca:	6801      	ldr	r1, [r0, #0]
 80028cc:	4c24      	ldr	r4, [pc, #144]	@ (8002960 <UART_AdvFeatureConfig+0xb0>)
 80028ce:	684a      	ldr	r2, [r1, #4]
 80028d0:	4022      	ands	r2, r4
 80028d2:	6ac4      	ldr	r4, [r0, #44]	@ 0x2c
 80028d4:	4322      	orrs	r2, r4
 80028d6:	604a      	str	r2, [r1, #4]
  }

  /* if required, configure RX pin active level inversion */
  if (HAL_IS_BIT_SET(huart->AdvancedInit.AdvFeatureInit, UART_ADVFEATURE_RXINVERT_INIT))
 80028d8:	079a      	lsls	r2, r3, #30
 80028da:	d506      	bpl.n	80028ea <UART_AdvFeatureConfig+0x3a>
  {
    assert_param(IS_UART_ADVFEATURE_RXINV(huart->AdvancedInit.RxPinLevelInvert));
    MODIFY_REG(huart->Instance->CR2, USART_CR2_RXINV, huart->AdvancedInit.RxPinLevelInvert);
 80028dc:	6801      	ldr	r1, [r0, #0]
 80028de:	4c21      	ldr	r4, [pc, #132]	@ (8002964 <UART_AdvFeatureConfig+0xb4>)
 80028e0:	684a      	ldr	r2, [r1, #4]
 80028e2:	4022      	ands	r2, r4
 80028e4:	6b04      	ldr	r4, [r0, #48]	@ 0x30
 80028e6:	4322      	orrs	r2, r4
 80028e8:	604a      	str	r2, [r1, #4]
  }

  /* if required, configure data inversion */
  if (HAL_IS_BIT_SET(huart->AdvancedInit.AdvFeatureInit, UART_ADVFEATURE_DATAINVERT_INIT))
 80028ea:	075a      	lsls	r2, r3, #29
 80028ec:	d506      	bpl.n	80028fc <UART_AdvFeatureConfig+0x4c>
  {
    assert_param(IS_UART_ADVFEATURE_DATAINV(huart->AdvancedInit.DataInvert));
    MODIFY_REG(huart->Instance->CR2, USART_CR2_DATAINV, huart->AdvancedInit.DataInvert);
 80028ee:	6801      	ldr	r1, [r0, #0]
 80028f0:	4c1d      	ldr	r4, [pc, #116]	@ (8002968 <UART_AdvFeatureConfig+0xb8>)
 80028f2:	684a      	ldr	r2, [r1, #4]
 80028f4:	4022      	ands	r2, r4
 80028f6:	6b44      	ldr	r4, [r0, #52]	@ 0x34
 80028f8:	4322      	orrs	r2, r4
 80028fa:	604a      	str	r2, [r1, #4]
  }

  /* if required, configure RX overrun detection disabling */
  if (HAL_IS_BIT_SET(huart->AdvancedInit.AdvFeatureInit, UART_ADVFEATURE_RXOVERRUNDISABLE_INIT))
 80028fc:	06da      	lsls	r2, r3, #27
 80028fe:	d506      	bpl.n	800290e <UART_AdvFeatureConfig+0x5e>
  {
    assert_param(IS_UART_OVERRUN(huart->AdvancedInit.OverrunDisable));
    MODIFY_REG(huart->Instance->CR3, USART_CR3_OVRDIS, huart->AdvancedInit.OverrunDisable);
 8002900:	6801      	ldr	r1, [r0, #0]
 8002902:	4c1a      	ldr	r4, [pc, #104]	@ (800296c <UART_AdvFeatureConfig+0xbc>)
 8002904:	688a      	ldr	r2, [r1, #8]
 8002906:	4022      	ands	r2, r4
 8002908:	6bc4      	ldr	r4, [r0, #60]	@ 0x3c
 800290a:	4322      	orrs	r2, r4
 800290c:	608a      	str	r2, [r1, #8]
  }

  /* if required, configure DMA disabling on reception error */
  if (HAL_IS_BIT_SET(huart->AdvancedInit.AdvFeatureInit, UART_ADVFEATURE_DMADISABLEONERROR_INIT))
 800290e:	069a      	lsls	r2, r3, #26
 8002910:	d506      	bpl.n	8002920 <UART_AdvFeatureConfig+0x70>
  {
    assert_param(IS_UART_ADVFEATURE_DMAONRXERROR(huart->AdvancedInit.DMADisableonRxError));
    MODIFY_REG(huart->Instance->CR3, USART_CR3_DDRE, huart->AdvancedInit.DMADisableonRxError);
 8002912:	6801      	ldr	r1, [r0, #0]
 8002914:	4c16      	ldr	r4, [pc, #88]	@ (8002970 <UART_AdvFeatureConfig+0xc0>)
 8002916:	688a      	ldr	r2, [r1, #8]
 8002918:	4022      	ands	r2, r4
 800291a:	6c04      	ldr	r4, [r0, #64]	@ 0x40
 800291c:	4322      	orrs	r2, r4
 800291e:	608a      	str	r2, [r1, #8]
  }

  /* if required, configure auto Baud rate detection scheme */
  if (HAL_IS_BIT_SET(huart->AdvancedInit.AdvFeatureInit, UART_ADVFEATURE_AUTOBAUDRATE_INIT))
 8002920:	065a      	lsls	r2, r3, #25
 8002922:	d50a      	bpl.n	800293a <UART_AdvFeatureConfig+0x8a>
  {
    assert_param(IS_USART_AUTOBAUDRATE_DETECTION_INSTANCE(huart->Instance));
    assert_param(IS_UART_ADVFEATURE_AUTOBAUDRATE(huart->AdvancedInit.AutoBaudRateEnable));
    MODIFY_REG(huart->Instance->CR2, USART_CR2_ABREN, huart->AdvancedInit.AutoBaudRateEnable);
 8002924:	6801      	ldr	r1, [r0, #0]
 8002926:	4d13      	ldr	r5, [pc, #76]	@ (8002974 <UART_AdvFeatureConfig+0xc4>)
 8002928:	684a      	ldr	r2, [r1, #4]
 800292a:	6c44      	ldr	r4, [r0, #68]	@ 0x44
 800292c:	402a      	ands	r2, r5
 800292e:	4322      	orrs	r2, r4
 8002930:	604a      	str	r2, [r1, #4]
    /* set auto Baudrate detection parameters if detection is enabled */
    if (huart->AdvancedInit.AutoBaudRateEnable == UART_ADVFEATURE_AUTOBAUDRATE_ENABLE)
 8002932:	2280      	movs	r2, #128	@ 0x80
 8002934:	0352      	lsls	r2, r2, #13
 8002936:	4294      	cmp	r4, r2
 8002938:	d009      	beq.n	800294e <UART_AdvFeatureConfig+0x9e>
      MODIFY_REG(huart->Instance->CR2, USART_CR2_ABRMODE, huart->AdvancedInit.AutoBaudRateMode);
    }
  }

  /* if required, configure MSB first on communication line */
  if (HAL_IS_BIT_SET(huart->AdvancedInit.AdvFeatureInit, UART_ADVFEATURE_MSBFIRST_INIT))
 800293a:	061b      	lsls	r3, r3, #24
 800293c:	d506      	bpl.n	800294c <UART_AdvFeatureConfig+0x9c>
  {
    assert_param(IS_UART_ADVFEATURE_MSBFIRST(huart->AdvancedInit.MSBFirst));
    MODIFY_REG(huart->Instance->CR2, USART_CR2_MSBFIRST, huart->AdvancedInit.MSBFirst);
 800293e:	6802      	ldr	r2, [r0, #0]
 8002940:	490d      	ldr	r1, [pc, #52]	@ (8002978 <UART_AdvFeatureConfig+0xc8>)
 8002942:	6853      	ldr	r3, [r2, #4]
 8002944:	400b      	ands	r3, r1
 8002946:	6cc1      	ldr	r1, [r0, #76]	@ 0x4c
 8002948:	430b      	orrs	r3, r1
 800294a:	6053      	str	r3, [r2, #4]
  }
}
 800294c:	bd30      	pop	{r4, r5, pc}
      MODIFY_REG(huart->Instance->CR2, USART_CR2_ABRMODE, huart->AdvancedInit.AutoBaudRateMode);
 800294e:	684a      	ldr	r2, [r1, #4]
 8002950:	4c0a      	ldr	r4, [pc, #40]	@ (800297c <UART_AdvFeatureConfig+0xcc>)
 8002952:	4022      	ands	r2, r4
 8002954:	6c84      	ldr	r4, [r0, #72]	@ 0x48
 8002956:	4322      	orrs	r2, r4
 8002958:	604a      	str	r2, [r1, #4]
 800295a:	e7ee      	b.n	800293a <UART_AdvFeatureConfig+0x8a>
 800295c:	ffff7fff 	.word	0xffff7fff
 8002960:	fffdffff 	.word	0xfffdffff
 8002964:	fffeffff 	.word	0xfffeffff
 8002968:	fffbffff 	.word	0xfffbffff
 800296c:	ffffefff 	.word	0xffffefff
 8002970:	ffffdfff 	.word	0xffffdfff
 8002974:	ffefffff 	.word	0xffefffff
 8002978:	fff7ffff 	.word	0xfff7ffff
 800297c:	ff9fffff 	.word	0xff9fffff

08002980 <UART_CheckIdleState>:
  * @brief Check the UART Idle State.
  * @param huart UART handle.
  * @retval HAL status
  */
HAL_StatusTypeDef UART_CheckIdleState(UART_HandleTypeDef *huart)
{
 8002980:	b5f0      	push	{r4, r5, r6, r7, lr}
  uint32_t tickstart;

  /* Initialize the UART ErrorCode */
  huart->ErrorCode = HAL_UART_ERROR_NONE;
 8002982:	2390      	movs	r3, #144	@ 0x90
 8002984:	2200      	movs	r2, #0
{
 8002986:	46c6      	mov	lr, r8
 8002988:	0004      	movs	r4, r0
 800298a:	b500      	push	{lr}
  huart->ErrorCode = HAL_UART_ERROR_NONE;
 800298c:	50c2      	str	r2, [r0, r3]

  /* Init tickstart for timeout management */
  tickstart = HAL_GetTick();
 800298e:	f7fe fa0b 	bl	8000da8 <HAL_GetTick>

  /* Check if the Transmitter is enabled */
  if ((huart->Instance->CR1 & USART_CR1_TE) == USART_CR1_TE)
 8002992:	6823      	ldr	r3, [r4, #0]
  tickstart = HAL_GetTick();
 8002994:	0005      	movs	r5, r0
  if ((huart->Instance->CR1 & USART_CR1_TE) == USART_CR1_TE)
 8002996:	681a      	ldr	r2, [r3, #0]
 8002998:	0712      	lsls	r2, r2, #28
 800299a:	d411      	bmi.n	80029c0 <UART_CheckIdleState+0x40>
      return HAL_TIMEOUT;
    }
  }

  /* Check if the Receiver is enabled */
  if ((huart->Instance->CR1 & USART_CR1_RE) == USART_CR1_RE)
 800299c:	681a      	ldr	r2, [r3, #0]
 800299e:	0752      	lsls	r2, r2, #29
 80029a0:	d43e      	bmi.n	8002a20 <UART_CheckIdleState+0xa0>
      return HAL_TIMEOUT;
    }
  }

  /* Initialize the UART State */
  huart->gState = HAL_UART_STATE_READY;
 80029a2:	2320      	movs	r3, #32
 80029a4:	2288      	movs	r2, #136	@ 0x88
 80029a6:	50a3      	str	r3, [r4, r2]
  huart->RxState = HAL_UART_STATE_READY;
 80029a8:	3204      	adds	r2, #4
 80029aa:	50a3      	str	r3, [r4, r2]
  huart->ReceptionType = HAL_UART_RECEPTION_STANDARD;
 80029ac:	2300      	movs	r3, #0
  huart->RxEventType = HAL_UART_RXEVENT_TC;

  __HAL_UNLOCK(huart);

  return HAL_OK;
 80029ae:	2000      	movs	r0, #0
  huart->ReceptionType = HAL_UART_RECEPTION_STANDARD;
 80029b0:	66e3      	str	r3, [r4, #108]	@ 0x6c
  huart->RxEventType = HAL_UART_RXEVENT_TC;
 80029b2:	6723      	str	r3, [r4, #112]	@ 0x70
      __HAL_UNLOCK(huart);
 80029b4:	2384      	movs	r3, #132	@ 0x84
 80029b6:	2200      	movs	r2, #0
 80029b8:	54e2      	strb	r2, [r4, r3]
}
 80029ba:	bc80      	pop	{r7}
 80029bc:	46b8      	mov	r8, r7
 80029be:	bdf0      	pop	{r4, r5, r6, r7, pc}
  */
HAL_StatusTypeDef UART_WaitOnFlagUntilTimeout(UART_HandleTypeDef *huart, uint32_t Flag, FlagStatus Status,
                                              uint32_t Tickstart, uint32_t Timeout)
{
  /* Wait until flag is set */
  while ((__HAL_UART_GET_FLAG(huart, Flag) ? SET : RESET) == Status)
 80029c0:	69da      	ldr	r2, [r3, #28]
 80029c2:	0292      	lsls	r2, r2, #10
 80029c4:	d4ea      	bmi.n	800299c <UART_CheckIdleState+0x1c>
  {
    /* Check for the Timeout */
    if (Timeout != HAL_MAX_DELAY)
    {
      if (((HAL_GetTick() - Tickstart) > Timeout) || (Timeout == 0U))
 80029c6:	2680      	movs	r6, #128	@ 0x80
        return HAL_TIMEOUT;
      }

      if ((READ_BIT(huart->Instance->CR1, USART_CR1_RE) != 0U) && (Flag != UART_FLAG_TXE) && (Flag != UART_FLAG_TC))
      {
        if (__HAL_UART_GET_FLAG(huart, UART_FLAG_ORE) == SET)
 80029c8:	2308      	movs	r3, #8
      if ((READ_BIT(huart->Instance->CR1, USART_CR1_RE) != 0U) && (Flag != UART_FLAG_TXE) && (Flag != UART_FLAG_TC))
 80029ca:	2704      	movs	r7, #4
        if (__HAL_UART_GET_FLAG(huart, UART_FLAG_ORE) == SET)
 80029cc:	4698      	mov	r8, r3
      if (((HAL_GetTick() - Tickstart) > Timeout) || (Timeout == 0U))
 80029ce:	04b6      	lsls	r6, r6, #18
 80029d0:	e010      	b.n	80029f4 <UART_CheckIdleState+0x74>
      if ((READ_BIT(huart->Instance->CR1, USART_CR1_RE) != 0U) && (Flag != UART_FLAG_TXE) && (Flag != UART_FLAG_TC))
 80029d2:	6823      	ldr	r3, [r4, #0]
 80029d4:	681a      	ldr	r2, [r3, #0]
 80029d6:	4217      	tst	r7, r2
 80029d8:	d009      	beq.n	80029ee <UART_CheckIdleState+0x6e>
        if (__HAL_UART_GET_FLAG(huart, UART_FLAG_ORE) == SET)
 80029da:	4641      	mov	r1, r8
 80029dc:	69da      	ldr	r2, [r3, #28]
 80029de:	4211      	tst	r1, r2
 80029e0:	d159      	bne.n	8002a96 <UART_CheckIdleState+0x116>
          /* Process Unlocked */
          __HAL_UNLOCK(huart);

          return HAL_ERROR;
        }
        if (__HAL_UART_GET_FLAG(huart, UART_FLAG_RTOF) == SET)
 80029e2:	2280      	movs	r2, #128	@ 0x80
 80029e4:	69d9      	ldr	r1, [r3, #28]
 80029e6:	0112      	lsls	r2, r2, #4
 80029e8:	4211      	tst	r1, r2
 80029ea:	d000      	beq.n	80029ee <UART_CheckIdleState+0x6e>
 80029ec:	e085      	b.n	8002afa <UART_CheckIdleState+0x17a>
  while ((__HAL_UART_GET_FLAG(huart, Flag) ? SET : RESET) == Status)
 80029ee:	69da      	ldr	r2, [r3, #28]
 80029f0:	0292      	lsls	r2, r2, #10
 80029f2:	d4d3      	bmi.n	800299c <UART_CheckIdleState+0x1c>
      if (((HAL_GetTick() - Tickstart) > Timeout) || (Timeout == 0U))
 80029f4:	f7fe f9d8 	bl	8000da8 <HAL_GetTick>
 80029f8:	1b40      	subs	r0, r0, r5
 80029fa:	42b0      	cmp	r0, r6
 80029fc:	d3e9      	bcc.n	80029d2 <UART_CheckIdleState+0x52>
 */
__STATIC_FORCEINLINE uint32_t __get_PRIMASK(void)
{
  uint32_t result;

  __ASM volatile ("MRS %0, primask" : "=r" (result) :: "memory");
 80029fe:	f3ef 8110 	mrs	r1, PRIMASK
  \details Assigns the given value to the Priority Mask Register.
  \param [in]    priMask  Priority Mask
 */
__STATIC_FORCEINLINE void __set_PRIMASK(uint32_t priMask)
{
  __ASM volatile ("MSR primask, %0" : : "r" (priMask) : "memory");
 8002a02:	2301      	movs	r3, #1
 8002a04:	f383 8810 	msr	PRIMASK, r3
      ATOMIC_CLEAR_BIT(huart->Instance->CR1, (USART_CR1_TXEIE_TXFNFIE));
 8002a08:	2080      	movs	r0, #128	@ 0x80
 8002a0a:	6822      	ldr	r2, [r4, #0]
 8002a0c:	6813      	ldr	r3, [r2, #0]
 8002a0e:	4383      	bics	r3, r0
 8002a10:	6013      	str	r3, [r2, #0]
 8002a12:	f381 8810 	msr	PRIMASK, r1
      huart->gState = HAL_UART_STATE_READY;
 8002a16:	2388      	movs	r3, #136	@ 0x88
 8002a18:	2220      	movs	r2, #32
      return HAL_TIMEOUT;
 8002a1a:	2003      	movs	r0, #3
      huart->gState = HAL_UART_STATE_READY;
 8002a1c:	50e2      	str	r2, [r4, r3]
      return HAL_TIMEOUT;
 8002a1e:	e7c9      	b.n	80029b4 <UART_CheckIdleState+0x34>
  while ((__HAL_UART_GET_FLAG(huart, Flag) ? SET : RESET) == Status)
 8002a20:	69db      	ldr	r3, [r3, #28]
 8002a22:	025b      	lsls	r3, r3, #9
 8002a24:	d4bd      	bmi.n	80029a2 <UART_CheckIdleState+0x22>
      if (((HAL_GetTick() - Tickstart) > Timeout) || (Timeout == 0U))
 8002a26:	2680      	movs	r6, #128	@ 0x80
        if (__HAL_UART_GET_FLAG(huart, UART_FLAG_ORE) == SET)
 8002a28:	2308      	movs	r3, #8
      if ((READ_BIT(huart->Instance->CR1, USART_CR1_RE) != 0U) && (Flag != UART_FLAG_TXE) && (Flag != UART_FLAG_TC))
 8002a2a:	2704      	movs	r7, #4
        if (__HAL_UART_GET_FLAG(huart, UART_FLAG_ORE) == SET)
 8002a2c:	4698      	mov	r8, r3
      if (((HAL_GetTick() - Tickstart) > Timeout) || (Timeout == 0U))
 8002a2e:	04b6      	lsls	r6, r6, #18
 8002a30:	e011      	b.n	8002a56 <UART_CheckIdleState+0xd6>
      if ((READ_BIT(huart->Instance->CR1, USART_CR1_RE) != 0U) && (Flag != UART_FLAG_TXE) && (Flag != UART_FLAG_TC))
 8002a32:	6823      	ldr	r3, [r4, #0]
 8002a34:	681a      	ldr	r2, [r3, #0]
 8002a36:	4217      	tst	r7, r2
 8002a38:	d00a      	beq.n	8002a50 <UART_CheckIdleState+0xd0>
        if (__HAL_UART_GET_FLAG(huart, UART_FLAG_ORE) == SET)
 8002a3a:	4641      	mov	r1, r8
 8002a3c:	69da      	ldr	r2, [r3, #28]
 8002a3e:	4211      	tst	r1, r2
 8002a40:	d000      	beq.n	8002a44 <UART_CheckIdleState+0xc4>
 8002a42:	e08b      	b.n	8002b5c <UART_CheckIdleState+0x1dc>
        if (__HAL_UART_GET_FLAG(huart, UART_FLAG_RTOF) == SET)
 8002a44:	2280      	movs	r2, #128	@ 0x80
 8002a46:	69d9      	ldr	r1, [r3, #28]
 8002a48:	0112      	lsls	r2, r2, #4
 8002a4a:	4211      	tst	r1, r2
 8002a4c:	d000      	beq.n	8002a50 <UART_CheckIdleState+0xd0>
 8002a4e:	e0b7      	b.n	8002bc0 <UART_CheckIdleState+0x240>
  while ((__HAL_UART_GET_FLAG(huart, Flag) ? SET : RESET) == Status)
 8002a50:	69db      	ldr	r3, [r3, #28]
 8002a52:	025b      	lsls	r3, r3, #9
 8002a54:	d4a5      	bmi.n	80029a2 <UART_CheckIdleState+0x22>
      if (((HAL_GetTick() - Tickstart) > Timeout) || (Timeout == 0U))
 8002a56:	f7fe f9a7 	bl	8000da8 <HAL_GetTick>
 8002a5a:	1b40      	subs	r0, r0, r5
 8002a5c:	42b0      	cmp	r0, r6
 8002a5e:	d3e8      	bcc.n	8002a32 <UART_CheckIdleState+0xb2>
  __ASM volatile ("MRS %0, primask" : "=r" (result) :: "memory");
 8002a60:	f3ef 8010 	mrs	r0, PRIMASK
  __ASM volatile ("MSR primask, %0" : : "r" (priMask) : "memory");
 8002a64:	2201      	movs	r2, #1
 8002a66:	f382 8810 	msr	PRIMASK, r2
      ATOMIC_CLEAR_BIT(huart->Instance->CR1, (USART_CR1_RXNEIE_RXFNEIE | USART_CR1_PEIE));
 8002a6a:	6821      	ldr	r1, [r4, #0]
 8002a6c:	4d6d      	ldr	r5, [pc, #436]	@ (8002c24 <UART_CheckIdleState+0x2a4>)
 8002a6e:	680b      	ldr	r3, [r1, #0]
 8002a70:	402b      	ands	r3, r5
 8002a72:	600b      	str	r3, [r1, #0]
 8002a74:	f380 8810 	msr	PRIMASK, r0
  __ASM volatile ("MRS %0, primask" : "=r" (result) :: "memory");
 8002a78:	f3ef 8010 	mrs	r0, PRIMASK
  __ASM volatile ("MSR primask, %0" : : "r" (priMask) : "memory");
 8002a7c:	f382 8810 	msr	PRIMASK, r2
      ATOMIC_CLEAR_BIT(huart->Instance->CR3, USART_CR3_EIE);
 8002a80:	6821      	ldr	r1, [r4, #0]
 8002a82:	688b      	ldr	r3, [r1, #8]
 8002a84:	4393      	bics	r3, r2
 8002a86:	608b      	str	r3, [r1, #8]
 8002a88:	f380 8810 	msr	PRIMASK, r0
      huart->RxState = HAL_UART_STATE_READY;
 8002a8c:	238c      	movs	r3, #140	@ 0x8c
 8002a8e:	321f      	adds	r2, #31
      return HAL_TIMEOUT;
 8002a90:	2003      	movs	r0, #3
      huart->RxState = HAL_UART_STATE_READY;
 8002a92:	50e2      	str	r2, [r4, r3]
      return HAL_TIMEOUT;
 8002a94:	e78e      	b.n	80029b4 <UART_CheckIdleState+0x34>
          __HAL_UART_CLEAR_FLAG(huart, UART_CLEAR_OREF);
 8002a96:	6219      	str	r1, [r3, #32]
  __ASM volatile ("MRS %0, primask" : "=r" (result) :: "memory");
 8002a98:	f3ef 8010 	mrs	r0, PRIMASK
  __ASM volatile ("MSR primask, %0" : : "r" (priMask) : "memory");
 8002a9c:	2201      	movs	r2, #1
 8002a9e:	f382 8810 	msr	PRIMASK, r2
  * @retval None
  */
static void UART_EndRxTransfer(UART_HandleTypeDef *huart)
{
  /* Disable RXNE, PE and ERR (Frame error, noise error, overrun error) interrupts */
  ATOMIC_CLEAR_BIT(huart->Instance->CR1, (USART_CR1_RXNEIE_RXFNEIE | USART_CR1_PEIE));
 8002aa2:	6821      	ldr	r1, [r4, #0]
 8002aa4:	4d5f      	ldr	r5, [pc, #380]	@ (8002c24 <UART_CheckIdleState+0x2a4>)
 8002aa6:	680b      	ldr	r3, [r1, #0]
 8002aa8:	402b      	ands	r3, r5
 8002aaa:	600b      	str	r3, [r1, #0]
 8002aac:	f380 8810 	msr	PRIMASK, r0
  __ASM volatile ("MRS %0, primask" : "=r" (result) :: "memory");
 8002ab0:	f3ef 8110 	mrs	r1, PRIMASK
  __ASM volatile ("MSR primask, %0" : : "r" (priMask) : "memory");
 8002ab4:	f382 8810 	msr	PRIMASK, r2
  ATOMIC_CLEAR_BIT(huart->Instance->CR3, (USART_CR3_EIE | USART_CR3_RXFTIE));
 8002ab8:	6822      	ldr	r2, [r4, #0]
 8002aba:	485b      	ldr	r0, [pc, #364]	@ (8002c28 <UART_CheckIdleState+0x2a8>)
 8002abc:	6893      	ldr	r3, [r2, #8]
 8002abe:	4003      	ands	r3, r0
 8002ac0:	6093      	str	r3, [r2, #8]
 8002ac2:	f381 8810 	msr	PRIMASK, r1

  /* In case of reception waiting for IDLE event, disable also the IDLE IE interrupt source */
  if (huart->ReceptionType == HAL_UART_RECEPTION_TOIDLE)
 8002ac6:	6ee3      	ldr	r3, [r4, #108]	@ 0x6c
 8002ac8:	2b01      	cmp	r3, #1
 8002aca:	d10a      	bne.n	8002ae2 <UART_CheckIdleState+0x162>
  __ASM volatile ("MRS %0, primask" : "=r" (result) :: "memory");
 8002acc:	f3ef 8110 	mrs	r1, PRIMASK
  __ASM volatile ("MSR primask, %0" : : "r" (priMask) : "memory");
 8002ad0:	f383 8810 	msr	PRIMASK, r3
  {
    ATOMIC_CLEAR_BIT(huart->Instance->CR1, USART_CR1_IDLEIE);
 8002ad4:	2010      	movs	r0, #16
 8002ad6:	6822      	ldr	r2, [r4, #0]
 8002ad8:	6813      	ldr	r3, [r2, #0]
 8002ada:	4383      	bics	r3, r0
 8002adc:	6013      	str	r3, [r2, #0]
 8002ade:	f381 8810 	msr	PRIMASK, r1
  }

  /* At end of Rx process, restore huart->RxState to Ready */
  huart->RxState = HAL_UART_STATE_READY;
 8002ae2:	238c      	movs	r3, #140	@ 0x8c
 8002ae4:	2220      	movs	r2, #32
          huart->ErrorCode = HAL_UART_ERROR_ORE;
 8002ae6:	2108      	movs	r1, #8
  huart->RxState = HAL_UART_STATE_READY;
 8002ae8:	50e2      	str	r2, [r4, r3]
  huart->ReceptionType = HAL_UART_RECEPTION_STANDARD;
 8002aea:	2300      	movs	r3, #0
          huart->ErrorCode = HAL_UART_ERROR_ORE;
 8002aec:	3270      	adds	r2, #112	@ 0x70
  huart->ReceptionType = HAL_UART_RECEPTION_STANDARD;
 8002aee:	66e3      	str	r3, [r4, #108]	@ 0x6c

  /* Reset RxIsr function pointer */
  huart->RxISR = NULL;
 8002af0:	6763      	str	r3, [r4, #116]	@ 0x74
          huart->ErrorCode = HAL_UART_ERROR_ORE;
 8002af2:	50a1      	str	r1, [r4, r2]
          __HAL_UNLOCK(huart);
 8002af4:	3a0c      	subs	r2, #12
 8002af6:	54a3      	strb	r3, [r4, r2]
          return HAL_ERROR;
 8002af8:	e781      	b.n	80029fe <UART_CheckIdleState+0x7e>
          __HAL_UART_CLEAR_FLAG(huart, UART_CLEAR_RTOF);
 8002afa:	621a      	str	r2, [r3, #32]
  __ASM volatile ("MRS %0, primask" : "=r" (result) :: "memory");
 8002afc:	f3ef 8010 	mrs	r0, PRIMASK
  __ASM volatile ("MSR primask, %0" : : "r" (priMask) : "memory");
 8002b00:	2201      	movs	r2, #1
 8002b02:	f382 8810 	msr	PRIMASK, r2
  ATOMIC_CLEAR_BIT(huart->Instance->CR1, (USART_CR1_RXNEIE_RXFNEIE | USART_CR1_PEIE));
 8002b06:	6821      	ldr	r1, [r4, #0]
 8002b08:	4d46      	ldr	r5, [pc, #280]	@ (8002c24 <UART_CheckIdleState+0x2a4>)
 8002b0a:	680b      	ldr	r3, [r1, #0]
 8002b0c:	402b      	ands	r3, r5
 8002b0e:	600b      	str	r3, [r1, #0]
 8002b10:	f380 8810 	msr	PRIMASK, r0
  __ASM volatile ("MRS %0, primask" : "=r" (result) :: "memory");
 8002b14:	f3ef 8110 	mrs	r1, PRIMASK
  __ASM volatile ("MSR primask, %0" : : "r" (priMask) : "memory");
 8002b18:	f382 8810 	msr	PRIMASK, r2
  ATOMIC_CLEAR_BIT(huart->Instance->CR3, (USART_CR3_EIE | USART_CR3_RXFTIE));
 8002b1c:	6822      	ldr	r2, [r4, #0]
 8002b1e:	4842      	ldr	r0, [pc, #264]	@ (8002c28 <UART_CheckIdleState+0x2a8>)
 8002b20:	6893      	ldr	r3, [r2, #8]
 8002b22:	4003      	ands	r3, r0
 8002b24:	6093      	str	r3, [r2, #8]
 8002b26:	f381 8810 	msr	PRIMASK, r1
  if (huart->ReceptionType == HAL_UART_RECEPTION_TOIDLE)
 8002b2a:	6ee3      	ldr	r3, [r4, #108]	@ 0x6c
 8002b2c:	2b01      	cmp	r3, #1
 8002b2e:	d10a      	bne.n	8002b46 <UART_CheckIdleState+0x1c6>
  __ASM volatile ("MRS %0, primask" : "=r" (result) :: "memory");
 8002b30:	f3ef 8110 	mrs	r1, PRIMASK
  __ASM volatile ("MSR primask, %0" : : "r" (priMask) : "memory");
 8002b34:	f383 8810 	msr	PRIMASK, r3
    ATOMIC_CLEAR_BIT(huart->Instance->CR1, USART_CR1_IDLEIE);
 8002b38:	2010      	movs	r0, #16
 8002b3a:	6822      	ldr	r2, [r4, #0]
 8002b3c:	6813      	ldr	r3, [r2, #0]
 8002b3e:	4383      	bics	r3, r0
 8002b40:	6013      	str	r3, [r2, #0]
 8002b42:	f381 8810 	msr	PRIMASK, r1
  huart->RxState = HAL_UART_STATE_READY;
 8002b46:	2220      	movs	r2, #32
 8002b48:	238c      	movs	r3, #140	@ 0x8c
          huart->ErrorCode = HAL_UART_ERROR_RTO;
 8002b4a:	2190      	movs	r1, #144	@ 0x90
  huart->RxState = HAL_UART_STATE_READY;
 8002b4c:	50e2      	str	r2, [r4, r3]
  huart->ReceptionType = HAL_UART_RECEPTION_STANDARD;
 8002b4e:	2300      	movs	r3, #0
 8002b50:	66e3      	str	r3, [r4, #108]	@ 0x6c
  huart->RxISR = NULL;
 8002b52:	6763      	str	r3, [r4, #116]	@ 0x74
          huart->ErrorCode = HAL_UART_ERROR_RTO;
 8002b54:	5062      	str	r2, [r4, r1]
          __HAL_UNLOCK(huart);
 8002b56:	3264      	adds	r2, #100	@ 0x64
 8002b58:	54a3      	strb	r3, [r4, r2]
          return HAL_TIMEOUT;
 8002b5a:	e750      	b.n	80029fe <UART_CheckIdleState+0x7e>
          __HAL_UART_CLEAR_FLAG(huart, UART_CLEAR_OREF);
 8002b5c:	6219      	str	r1, [r3, #32]
  __ASM volatile ("MRS %0, primask" : "=r" (result) :: "memory");
 8002b5e:	f3ef 8010 	mrs	r0, PRIMASK
  __ASM volatile ("MSR primask, %0" : : "r" (priMask) : "memory");
 8002b62:	2201      	movs	r2, #1
 8002b64:	f382 8810 	msr	PRIMASK, r2
  ATOMIC_CLEAR_BIT(huart->Instance->CR1, (USART_CR1_RXNEIE_RXFNEIE | USART_CR1_PEIE));
 8002b68:	6821      	ldr	r1, [r4, #0]
 8002b6a:	4d2e      	ldr	r5, [pc, #184]	@ (8002c24 <UART_CheckIdleState+0x2a4>)
 8002b6c:	680b      	ldr	r3, [r1, #0]
 8002b6e:	402b      	ands	r3, r5
 8002b70:	600b      	str	r3, [r1, #0]
 8002b72:	f380 8810 	msr	PRIMASK, r0
  __ASM volatile ("MRS %0, primask" : "=r" (result) :: "memory");
 8002b76:	f3ef 8110 	mrs	r1, PRIMASK
  __ASM volatile ("MSR primask, %0" : : "r" (priMask) : "memory");
 8002b7a:	f382 8810 	msr	PRIMASK, r2
  ATOMIC_CLEAR_BIT(huart->Instance->CR3, (USART_CR3_EIE | USART_CR3_RXFTIE));
 8002b7e:	6822      	ldr	r2, [r4, #0]
 8002b80:	4829      	ldr	r0, [pc, #164]	@ (8002c28 <UART_CheckIdleState+0x2a8>)
 8002b82:	6893      	ldr	r3, [r2, #8]
 8002b84:	4003      	ands	r3, r0
 8002b86:	6093      	str	r3, [r2, #8]
 8002b88:	f381 8810 	msr	PRIMASK, r1
  if (huart->ReceptionType == HAL_UART_RECEPTION_TOIDLE)
 8002b8c:	6ee3      	ldr	r3, [r4, #108]	@ 0x6c
 8002b8e:	2b01      	cmp	r3, #1
 8002b90:	d10a      	bne.n	8002ba8 <UART_CheckIdleState+0x228>
  __ASM volatile ("MRS %0, primask" : "=r" (result) :: "memory");
 8002b92:	f3ef 8110 	mrs	r1, PRIMASK
  __ASM volatile ("MSR primask, %0" : : "r" (priMask) : "memory");
 8002b96:	f383 8810 	msr	PRIMASK, r3
    ATOMIC_CLEAR_BIT(huart->Instance->CR1, USART_CR1_IDLEIE);
 8002b9a:	2010      	movs	r0, #16
 8002b9c:	6822      	ldr	r2, [r4, #0]
 8002b9e:	6813      	ldr	r3, [r2, #0]
 8002ba0:	4383      	bics	r3, r0
 8002ba2:	6013      	str	r3, [r2, #0]
 8002ba4:	f381 8810 	msr	PRIMASK, r1
  huart->RxState = HAL_UART_STATE_READY;
 8002ba8:	238c      	movs	r3, #140	@ 0x8c
 8002baa:	2220      	movs	r2, #32
          huart->ErrorCode = HAL_UART_ERROR_ORE;
 8002bac:	2108      	movs	r1, #8
  huart->RxState = HAL_UART_STATE_READY;
 8002bae:	50e2      	str	r2, [r4, r3]
  huart->ReceptionType = HAL_UART_RECEPTION_STANDARD;
 8002bb0:	2300      	movs	r3, #0
          huart->ErrorCode = HAL_UART_ERROR_ORE;
 8002bb2:	3270      	adds	r2, #112	@ 0x70
  huart->ReceptionType = HAL_UART_RECEPTION_STANDARD;
 8002bb4:	66e3      	str	r3, [r4, #108]	@ 0x6c
  huart->RxISR = NULL;
 8002bb6:	6763      	str	r3, [r4, #116]	@ 0x74
          huart->ErrorCode = HAL_UART_ERROR_ORE;
 8002bb8:	50a1      	str	r1, [r4, r2]
          __HAL_UNLOCK(huart);
 8002bba:	3a0c      	subs	r2, #12
 8002bbc:	54a3      	strb	r3, [r4, r2]
          return HAL_ERROR;
 8002bbe:	e74f      	b.n	8002a60 <UART_CheckIdleState+0xe0>
          __HAL_UART_CLEAR_FLAG(huart, UART_CLEAR_RTOF);
 8002bc0:	621a      	str	r2, [r3, #32]
  __ASM volatile ("MRS %0, primask" : "=r" (result) :: "memory");
 8002bc2:	f3ef 8010 	mrs	r0, PRIMASK
  __ASM volatile ("MSR primask, %0" : : "r" (priMask) : "memory");
 8002bc6:	2201      	movs	r2, #1
 8002bc8:	f382 8810 	msr	PRIMASK, r2
  ATOMIC_CLEAR_BIT(huart->Instance->CR1, (USART_CR1_RXNEIE_RXFNEIE | USART_CR1_PEIE));
 8002bcc:	6821      	ldr	r1, [r4, #0]
 8002bce:	4d15      	ldr	r5, [pc, #84]	@ (8002c24 <UART_CheckIdleState+0x2a4>)
 8002bd0:	680b      	ldr	r3, [r1, #0]
 8002bd2:	402b      	ands	r3, r5
 8002bd4:	600b      	str	r3, [r1, #0]
 8002bd6:	f380 8810 	msr	PRIMASK, r0
  __ASM volatile ("MRS %0, primask" : "=r" (result) :: "memory");
 8002bda:	f3ef 8110 	mrs	r1, PRIMASK
  __ASM volatile ("MSR primask, %0" : : "r" (priMask) : "memory");
 8002bde:	f382 8810 	msr	PRIMASK, r2
  ATOMIC_CLEAR_BIT(huart->Instance->CR3, (USART_CR3_EIE | USART_CR3_RXFTIE));
 8002be2:	6822      	ldr	r2, [r4, #0]
 8002be4:	4810      	ldr	r0, [pc, #64]	@ (8002c28 <UART_CheckIdleState+0x2a8>)
 8002be6:	6893      	ldr	r3, [r2, #8]
 8002be8:	4003      	ands	r3, r0
 8002bea:	6093      	str	r3, [r2, #8]
 8002bec:	f381 8810 	msr	PRIMASK, r1
  if (huart->ReceptionType == HAL_UART_RECEPTION_TOIDLE)
 8002bf0:	6ee3      	ldr	r3, [r4, #108]	@ 0x6c
 8002bf2:	2b01      	cmp	r3, #1
 8002bf4:	d10a      	bne.n	8002c0c <UART_CheckIdleState+0x28c>
  __ASM volatile ("MRS %0, primask" : "=r" (result) :: "memory");
 8002bf6:	f3ef 8110 	mrs	r1, PRIMASK
  __ASM volatile ("MSR primask, %0" : : "r" (priMask) : "memory");
 8002bfa:	f383 8810 	msr	PRIMASK, r3
    ATOMIC_CLEAR_BIT(huart->Instance->CR1, USART_CR1_IDLEIE);
 8002bfe:	2010      	movs	r0, #16
 8002c00:	6822      	ldr	r2, [r4, #0]
 8002c02:	6813      	ldr	r3, [r2, #0]
 8002c04:	4383      	bics	r3, r0
 8002c06:	6013      	str	r3, [r2, #0]
 8002c08:	f381 8810 	msr	PRIMASK, r1
  huart->RxState = HAL_UART_STATE_READY;
 8002c0c:	2220      	movs	r2, #32
 8002c0e:	238c      	movs	r3, #140	@ 0x8c
          huart->ErrorCode = HAL_UART_ERROR_RTO;
 8002c10:	2190      	movs	r1, #144	@ 0x90
  huart->RxState = HAL_UART_STATE_READY;
 8002c12:	50e2      	str	r2, [r4, r3]
  huart->ReceptionType = HAL_UART_RECEPTION_STANDARD;
 8002c14:	2300      	movs	r3, #0
 8002c16:	66e3      	str	r3, [r4, #108]	@ 0x6c
  huart->RxISR = NULL;
 8002c18:	6763      	str	r3, [r4, #116]	@ 0x74
          huart->ErrorCode = HAL_UART_ERROR_RTO;
 8002c1a:	5062      	str	r2, [r4, r1]
          __HAL_UNLOCK(huart);
 8002c1c:	3264      	adds	r2, #100	@ 0x64
 8002c1e:	54a3      	strb	r3, [r4, r2]
          return HAL_TIMEOUT;
 8002c20:	e71e      	b.n	8002a60 <UART_CheckIdleState+0xe0>
 8002c22:	46c0      	nop			@ (mov r8, r8)
 8002c24:	fffffedf 	.word	0xfffffedf
 8002c28:	effffffe 	.word	0xeffffffe

08002c2c <HAL_UART_Init>:
{
 8002c2c:	b570      	push	{r4, r5, r6, lr}
 8002c2e:	1e04      	subs	r4, r0, #0
  if (huart == NULL)
 8002c30:	d03a      	beq.n	8002ca8 <HAL_UART_Init+0x7c>
  if (huart->gState == HAL_UART_STATE_RESET)
 8002c32:	2388      	movs	r3, #136	@ 0x88
 8002c34:	58c3      	ldr	r3, [r0, r3]
 8002c36:	2b00      	cmp	r3, #0
 8002c38:	d100      	bne.n	8002c3c <HAL_UART_Init+0x10>
 8002c3a:	e072      	b.n	8002d22 <HAL_UART_Init+0xf6>
  huart->gState = HAL_UART_STATE_BUSY;
 8002c3c:	2388      	movs	r3, #136	@ 0x88
 8002c3e:	2224      	movs	r2, #36	@ 0x24
  __HAL_UART_DISABLE(huart);
 8002c40:	6825      	ldr	r5, [r4, #0]
  huart->gState = HAL_UART_STATE_BUSY;
 8002c42:	50e2      	str	r2, [r4, r3]
  __HAL_UART_DISABLE(huart);
 8002c44:	682b      	ldr	r3, [r5, #0]
 8002c46:	3a23      	subs	r2, #35	@ 0x23
 8002c48:	4393      	bics	r3, r2
 8002c4a:	602b      	str	r3, [r5, #0]
  if (huart->AdvancedInit.AdvFeatureInit != UART_ADVFEATURE_NO_INIT)
 8002c4c:	6aa3      	ldr	r3, [r4, #40]	@ 0x28
 8002c4e:	2b00      	cmp	r3, #0
 8002c50:	d163      	bne.n	8002d1a <HAL_UART_Init+0xee>
  tmpreg = (uint32_t)huart->Init.WordLength | huart->Init.Parity | huart->Init.Mode | huart->Init.OverSampling ;
 8002c52:	6921      	ldr	r1, [r4, #16]
 8002c54:	68a3      	ldr	r3, [r4, #8]
  MODIFY_REG(huart->Instance->CR1, USART_CR1_FIELDS, tmpreg);
 8002c56:	682a      	ldr	r2, [r5, #0]
  tmpreg = (uint32_t)huart->Init.WordLength | huart->Init.Parity | huart->Init.Mode | huart->Init.OverSampling ;
 8002c58:	430b      	orrs	r3, r1
 8002c5a:	6961      	ldr	r1, [r4, #20]
 8002c5c:	69e0      	ldr	r0, [r4, #28]
 8002c5e:	430b      	orrs	r3, r1
  MODIFY_REG(huart->Instance->CR1, USART_CR1_FIELDS, tmpreg);
 8002c60:	4958      	ldr	r1, [pc, #352]	@ (8002dc4 <HAL_UART_Init+0x198>)
  tmpreg = (uint32_t)huart->Init.WordLength | huart->Init.Parity | huart->Init.Mode | huart->Init.OverSampling ;
 8002c62:	4303      	orrs	r3, r0
  MODIFY_REG(huart->Instance->CR1, USART_CR1_FIELDS, tmpreg);
 8002c64:	400a      	ands	r2, r1
 8002c66:	4313      	orrs	r3, r2
 8002c68:	602b      	str	r3, [r5, #0]
  MODIFY_REG(huart->Instance->CR2, USART_CR2_STOP, huart->Init.StopBits);
 8002c6a:	686b      	ldr	r3, [r5, #4]
 8002c6c:	4a56      	ldr	r2, [pc, #344]	@ (8002dc8 <HAL_UART_Init+0x19c>)
    tmpreg |= huart->Init.OneBitSampling;
 8002c6e:	6a21      	ldr	r1, [r4, #32]
  MODIFY_REG(huart->Instance->CR2, USART_CR2_STOP, huart->Init.StopBits);
 8002c70:	4013      	ands	r3, r2
 8002c72:	68e2      	ldr	r2, [r4, #12]
 8002c74:	4313      	orrs	r3, r2
 8002c76:	606b      	str	r3, [r5, #4]
  tmpreg = (uint32_t)huart->Init.HwFlowCtl;
 8002c78:	69a3      	ldr	r3, [r4, #24]
  MODIFY_REG(huart->Instance->CR3, USART_CR3_FIELDS, tmpreg);
 8002c7a:	68aa      	ldr	r2, [r5, #8]
    tmpreg |= huart->Init.OneBitSampling;
 8002c7c:	430b      	orrs	r3, r1
  MODIFY_REG(huart->Instance->CR3, USART_CR3_FIELDS, tmpreg);
 8002c7e:	4953      	ldr	r1, [pc, #332]	@ (8002dcc <HAL_UART_Init+0x1a0>)
 8002c80:	400a      	ands	r2, r1
  MODIFY_REG(huart->Instance->PRESC, USART_PRESC_PRESCALER, huart->Init.ClockPrescaler);
 8002c82:	210f      	movs	r1, #15
  MODIFY_REG(huart->Instance->CR3, USART_CR3_FIELDS, tmpreg);
 8002c84:	4313      	orrs	r3, r2
 8002c86:	60ab      	str	r3, [r5, #8]
  MODIFY_REG(huart->Instance->PRESC, USART_PRESC_PRESCALER, huart->Init.ClockPrescaler);
 8002c88:	6aeb      	ldr	r3, [r5, #44]	@ 0x2c
 8002c8a:	6a62      	ldr	r2, [r4, #36]	@ 0x24
 8002c8c:	438b      	bics	r3, r1
 8002c8e:	4313      	orrs	r3, r2
 8002c90:	62eb      	str	r3, [r5, #44]	@ 0x2c
  UART_GETCLOCKSOURCE(huart, clocksource);
 8002c92:	4b4f      	ldr	r3, [pc, #316]	@ (8002dd0 <HAL_UART_Init+0x1a4>)
 8002c94:	429d      	cmp	r5, r3
 8002c96:	d009      	beq.n	8002cac <HAL_UART_Init+0x80>
 8002c98:	4b4e      	ldr	r3, [pc, #312]	@ (8002dd4 <HAL_UART_Init+0x1a8>)
 8002c9a:	429d      	cmp	r5, r3
 8002c9c:	d00d      	beq.n	8002cba <HAL_UART_Init+0x8e>
  huart->NbRxDataToProcess = 1;
 8002c9e:	4b4e      	ldr	r3, [pc, #312]	@ (8002dd8 <HAL_UART_Init+0x1ac>)
 8002ca0:	66a3      	str	r3, [r4, #104]	@ 0x68
  huart->RxISR = NULL;
 8002ca2:	2300      	movs	r3, #0
 8002ca4:	6763      	str	r3, [r4, #116]	@ 0x74
  huart->TxISR = NULL;
 8002ca6:	67a3      	str	r3, [r4, #120]	@ 0x78
    return HAL_ERROR;
 8002ca8:	2001      	movs	r0, #1
}
 8002caa:	bd70      	pop	{r4, r5, r6, pc}
  UART_GETCLOCKSOURCE(huart, clocksource);
 8002cac:	4b4b      	ldr	r3, [pc, #300]	@ (8002ddc <HAL_UART_Init+0x1b0>)
 8002cae:	6d59      	ldr	r1, [r3, #84]	@ 0x54
 8002cb0:	2303      	movs	r3, #3
 8002cb2:	400b      	ands	r3, r1
 8002cb4:	3b01      	subs	r3, #1
 8002cb6:	2b02      	cmp	r3, #2
 8002cb8:	d938      	bls.n	8002d2c <HAL_UART_Init+0x100>
  else if (huart->Init.OverSampling == UART_OVERSAMPLING_8)
 8002cba:	2380      	movs	r3, #128	@ 0x80
 8002cbc:	021b      	lsls	r3, r3, #8
 8002cbe:	4298      	cmp	r0, r3
 8002cc0:	d043      	beq.n	8002d4a <HAL_UART_Init+0x11e>
        pclk = HAL_RCC_GetPCLK1Freq();
 8002cc2:	f7fe fd69 	bl	8001798 <HAL_RCC_GetPCLK1Freq>
    if (pclk != 0U)
 8002cc6:	2800      	cmp	r0, #0
 8002cc8:	d062      	beq.n	8002d90 <HAL_UART_Init+0x164>
      usartdiv = (uint32_t)(UART_DIV_SAMPLING16(pclk, huart->Init.BaudRate, huart->Init.ClockPrescaler));
 8002cca:	6a62      	ldr	r2, [r4, #36]	@ 0x24
 8002ccc:	4b44      	ldr	r3, [pc, #272]	@ (8002de0 <HAL_UART_Init+0x1b4>)
 8002cce:	0052      	lsls	r2, r2, #1
 8002cd0:	5ad1      	ldrh	r1, [r2, r3]
 8002cd2:	f7fd fa15 	bl	8000100 <__udivsi3>
 8002cd6:	6865      	ldr	r5, [r4, #4]
 8002cd8:	086b      	lsrs	r3, r5, #1
 8002cda:	18c0      	adds	r0, r0, r3
 8002cdc:	0029      	movs	r1, r5
 8002cde:	f7fd fa0f 	bl	8000100 <__udivsi3>
      if ((usartdiv >= UART_BRR_MIN) && (usartdiv <= UART_BRR_MAX))
 8002ce2:	0002      	movs	r2, r0
 8002ce4:	4b3f      	ldr	r3, [pc, #252]	@ (8002de4 <HAL_UART_Init+0x1b8>)
 8002ce6:	3a10      	subs	r2, #16
 8002ce8:	429a      	cmp	r2, r3
 8002cea:	d8d8      	bhi.n	8002c9e <HAL_UART_Init+0x72>
        huart->Instance->BRR = (uint16_t)usartdiv;
 8002cec:	6823      	ldr	r3, [r4, #0]
 8002cee:	60d8      	str	r0, [r3, #12]
  huart->NbRxDataToProcess = 1;
 8002cf0:	4a39      	ldr	r2, [pc, #228]	@ (8002dd8 <HAL_UART_Init+0x1ac>)
 8002cf2:	66a2      	str	r2, [r4, #104]	@ 0x68
  huart->RxISR = NULL;
 8002cf4:	2200      	movs	r2, #0
 8002cf6:	6762      	str	r2, [r4, #116]	@ 0x74
  huart->TxISR = NULL;
 8002cf8:	67a2      	str	r2, [r4, #120]	@ 0x78
  CLEAR_BIT(huart->Instance->CR2, (USART_CR2_LINEN | USART_CR2_CLKEN));
 8002cfa:	685a      	ldr	r2, [r3, #4]
 8002cfc:	493a      	ldr	r1, [pc, #232]	@ (8002de8 <HAL_UART_Init+0x1bc>)
  return (UART_CheckIdleState(huart));
 8002cfe:	0020      	movs	r0, r4
  CLEAR_BIT(huart->Instance->CR2, (USART_CR2_LINEN | USART_CR2_CLKEN));
 8002d00:	400a      	ands	r2, r1
  CLEAR_BIT(huart->Instance->CR3, (USART_CR3_SCEN | USART_CR3_HDSEL | USART_CR3_IREN));
 8002d02:	212a      	movs	r1, #42	@ 0x2a
  CLEAR_BIT(huart->Instance->CR2, (USART_CR2_LINEN | USART_CR2_CLKEN));
 8002d04:	605a      	str	r2, [r3, #4]
  CLEAR_BIT(huart->Instance->CR3, (USART_CR3_SCEN | USART_CR3_HDSEL | USART_CR3_IREN));
 8002d06:	689a      	ldr	r2, [r3, #8]
 8002d08:	438a      	bics	r2, r1
 8002d0a:	609a      	str	r2, [r3, #8]
  __HAL_UART_ENABLE(huart);
 8002d0c:	681a      	ldr	r2, [r3, #0]
 8002d0e:	3929      	subs	r1, #41	@ 0x29
 8002d10:	430a      	orrs	r2, r1
 8002d12:	601a      	str	r2, [r3, #0]
  return (UART_CheckIdleState(huart));
 8002d14:	f7ff fe34 	bl	8002980 <UART_CheckIdleState>
 8002d18:	e7c7      	b.n	8002caa <HAL_UART_Init+0x7e>
    UART_AdvFeatureConfig(huart);
 8002d1a:	0020      	movs	r0, r4
 8002d1c:	f7ff fdc8 	bl	80028b0 <UART_AdvFeatureConfig>
 8002d20:	e797      	b.n	8002c52 <HAL_UART_Init+0x26>
    huart->Lock = HAL_UNLOCKED;
 8002d22:	2284      	movs	r2, #132	@ 0x84
 8002d24:	5483      	strb	r3, [r0, r2]
    HAL_UART_MspInit(huart);
 8002d26:	f7fd fe9b 	bl	8000a60 <HAL_UART_MspInit>
 8002d2a:	e787      	b.n	8002c3c <HAL_UART_Init+0x10>
 8002d2c:	492f      	ldr	r1, [pc, #188]	@ (8002dec <HAL_UART_Init+0x1c0>)
 8002d2e:	5cc9      	ldrb	r1, [r1, r3]
  else if (huart->Init.OverSampling == UART_OVERSAMPLING_8)
 8002d30:	2380      	movs	r3, #128	@ 0x80
 8002d32:	021b      	lsls	r3, r3, #8
 8002d34:	4298      	cmp	r0, r3
 8002d36:	d034      	beq.n	8002da2 <HAL_UART_Init+0x176>
    switch (clocksource)
 8002d38:	2904      	cmp	r1, #4
 8002d3a:	d02f      	beq.n	8002d9c <HAL_UART_Init+0x170>
 8002d3c:	d824      	bhi.n	8002d88 <HAL_UART_Init+0x15c>
 8002d3e:	2900      	cmp	r1, #0
 8002d40:	d0bf      	beq.n	8002cc2 <HAL_UART_Init+0x96>
 8002d42:	2902      	cmp	r1, #2
 8002d44:	d1ab      	bne.n	8002c9e <HAL_UART_Init+0x72>
        pclk = (uint32_t) HSI_VALUE;
 8002d46:	482a      	ldr	r0, [pc, #168]	@ (8002df0 <HAL_UART_Init+0x1c4>)
 8002d48:	e7c0      	b.n	8002ccc <HAL_UART_Init+0xa0>
        pclk = HAL_RCC_GetPCLK1Freq();
 8002d4a:	f7fe fd25 	bl	8001798 <HAL_RCC_GetPCLK1Freq>
    if (pclk != 0U)
 8002d4e:	2800      	cmp	r0, #0
 8002d50:	d01e      	beq.n	8002d90 <HAL_UART_Init+0x164>
      usartdiv = (uint32_t)(UART_DIV_SAMPLING8(pclk, huart->Init.BaudRate, huart->Init.ClockPrescaler));
 8002d52:	6a62      	ldr	r2, [r4, #36]	@ 0x24
 8002d54:	4b22      	ldr	r3, [pc, #136]	@ (8002de0 <HAL_UART_Init+0x1b4>)
 8002d56:	0052      	lsls	r2, r2, #1
 8002d58:	5ad1      	ldrh	r1, [r2, r3]
 8002d5a:	f7fd f9d1 	bl	8000100 <__udivsi3>
 8002d5e:	6865      	ldr	r5, [r4, #4]
 8002d60:	0040      	lsls	r0, r0, #1
 8002d62:	086b      	lsrs	r3, r5, #1
 8002d64:	18c0      	adds	r0, r0, r3
 8002d66:	0029      	movs	r1, r5
 8002d68:	f7fd f9ca 	bl	8000100 <__udivsi3>
      if ((usartdiv >= UART_BRR_MIN) && (usartdiv <= UART_BRR_MAX))
 8002d6c:	0002      	movs	r2, r0
 8002d6e:	4b1d      	ldr	r3, [pc, #116]	@ (8002de4 <HAL_UART_Init+0x1b8>)
 8002d70:	3a10      	subs	r2, #16
 8002d72:	429a      	cmp	r2, r3
 8002d74:	d900      	bls.n	8002d78 <HAL_UART_Init+0x14c>
 8002d76:	e792      	b.n	8002c9e <HAL_UART_Init+0x72>
        brrtemp = (uint16_t)(usartdiv & 0xFFF0U);
 8002d78:	4a1e      	ldr	r2, [pc, #120]	@ (8002df4 <HAL_UART_Init+0x1c8>)
        huart->Instance->BRR = brrtemp;
 8002d7a:	6823      	ldr	r3, [r4, #0]
        brrtemp = (uint16_t)(usartdiv & 0xFFF0U);
 8002d7c:	4002      	ands	r2, r0
        brrtemp |= (uint16_t)((usartdiv & (uint16_t)0x000FU) >> 1U);
 8002d7e:	0700      	lsls	r0, r0, #28
 8002d80:	0f40      	lsrs	r0, r0, #29
        huart->Instance->BRR = brrtemp;
 8002d82:	4302      	orrs	r2, r0
 8002d84:	60da      	str	r2, [r3, #12]
  huart->NbRxDataToProcess = 1;
 8002d86:	e7b3      	b.n	8002cf0 <HAL_UART_Init+0xc4>
    switch (clocksource)
 8002d88:	0018      	movs	r0, r3
 8002d8a:	2908      	cmp	r1, #8
 8002d8c:	d09e      	beq.n	8002ccc <HAL_UART_Init+0xa0>
 8002d8e:	e786      	b.n	8002c9e <HAL_UART_Init+0x72>
  huart->NbRxDataToProcess = 1;
 8002d90:	4b11      	ldr	r3, [pc, #68]	@ (8002dd8 <HAL_UART_Init+0x1ac>)
  huart->RxISR = NULL;
 8002d92:	6760      	str	r0, [r4, #116]	@ 0x74
  huart->NbRxDataToProcess = 1;
 8002d94:	66a3      	str	r3, [r4, #104]	@ 0x68
  huart->TxISR = NULL;
 8002d96:	67a0      	str	r0, [r4, #120]	@ 0x78
  CLEAR_BIT(huart->Instance->CR2, (USART_CR2_LINEN | USART_CR2_CLKEN));
 8002d98:	6823      	ldr	r3, [r4, #0]
 8002d9a:	e7ae      	b.n	8002cfa <HAL_UART_Init+0xce>
        pclk = HAL_RCC_GetSysClockFreq();
 8002d9c:	f7fe fbe6 	bl	800156c <HAL_RCC_GetSysClockFreq>
        break;
 8002da0:	e791      	b.n	8002cc6 <HAL_UART_Init+0x9a>
    switch (clocksource)
 8002da2:	2904      	cmp	r1, #4
 8002da4:	d007      	beq.n	8002db6 <HAL_UART_Init+0x18a>
 8002da6:	d809      	bhi.n	8002dbc <HAL_UART_Init+0x190>
 8002da8:	2900      	cmp	r1, #0
 8002daa:	d0ce      	beq.n	8002d4a <HAL_UART_Init+0x11e>
 8002dac:	2902      	cmp	r1, #2
 8002dae:	d000      	beq.n	8002db2 <HAL_UART_Init+0x186>
 8002db0:	e775      	b.n	8002c9e <HAL_UART_Init+0x72>
 8002db2:	480f      	ldr	r0, [pc, #60]	@ (8002df0 <HAL_UART_Init+0x1c4>)
 8002db4:	e7ce      	b.n	8002d54 <HAL_UART_Init+0x128>
        pclk = HAL_RCC_GetSysClockFreq();
 8002db6:	f7fe fbd9 	bl	800156c <HAL_RCC_GetSysClockFreq>
        break;
 8002dba:	e7c8      	b.n	8002d4e <HAL_UART_Init+0x122>
    switch (clocksource)
 8002dbc:	2908      	cmp	r1, #8
 8002dbe:	d0c9      	beq.n	8002d54 <HAL_UART_Init+0x128>
 8002dc0:	e76d      	b.n	8002c9e <HAL_UART_Init+0x72>
 8002dc2:	46c0      	nop			@ (mov r8, r8)
 8002dc4:	cfff69f3 	.word	0xcfff69f3
 8002dc8:	ffffcfff 	.word	0xffffcfff
 8002dcc:	11fff4ff 	.word	0x11fff4ff
 8002dd0:	40013800 	.word	0x40013800
 8002dd4:	40004400 	.word	0x40004400
 8002dd8:	00010001 	.word	0x00010001
 8002ddc:	40021000 	.word	0x40021000
 8002de0:	08003068 	.word	0x08003068
 8002de4:	0000ffef 	.word	0x0000ffef
 8002de8:	ffffb7ff 	.word	0xffffb7ff
 8002dec:	08003064 	.word	0x08003064
 8002df0:	00f42400 	.word	0x00f42400
 8002df4:	0000fff0 	.word	0x0000fff0

08002df8 <HAL_UARTEx_DisableFifoMode>:
  * @brief  Disable the FIFO mode.
  * @param huart      UART handle.
  * @retval HAL status
  */
HAL_StatusTypeDef HAL_UARTEx_DisableFifoMode(UART_HandleTypeDef *huart)
{
 8002df8:	b570      	push	{r4, r5, r6, lr}

  /* Check parameters */
  assert_param(IS_UART_FIFO_INSTANCE(huart->Instance));

  /* Process Locked */
  __HAL_LOCK(huart);
 8002dfa:	2484      	movs	r4, #132	@ 0x84
 8002dfc:	5d03      	ldrb	r3, [r0, r4]
 8002dfe:	2b01      	cmp	r3, #1
 8002e00:	d012      	beq.n	8002e28 <HAL_UARTEx_DisableFifoMode+0x30>

  huart->gState = HAL_UART_STATE_BUSY;
 8002e02:	2588      	movs	r5, #136	@ 0x88
 8002e04:	2324      	movs	r3, #36	@ 0x24

  /* Save actual UART configuration */
  tmpcr1 = READ_REG(huart->Instance->CR1);

  /* Disable UART */
  __HAL_UART_DISABLE(huart);
 8002e06:	2601      	movs	r6, #1
  huart->gState = HAL_UART_STATE_BUSY;
 8002e08:	5143      	str	r3, [r0, r5]
  tmpcr1 = READ_REG(huart->Instance->CR1);
 8002e0a:	6803      	ldr	r3, [r0, #0]
 8002e0c:	681a      	ldr	r2, [r3, #0]
  __HAL_UART_DISABLE(huart);
 8002e0e:	6819      	ldr	r1, [r3, #0]
 8002e10:	43b1      	bics	r1, r6
 8002e12:	6019      	str	r1, [r3, #0]

  /* Enable FIFO mode */
  CLEAR_BIT(tmpcr1, USART_CR1_FIFOEN);
 8002e14:	4905      	ldr	r1, [pc, #20]	@ (8002e2c <HAL_UARTEx_DisableFifoMode+0x34>)
 8002e16:	400a      	ands	r2, r1
  huart->FifoMode = UART_FIFOMODE_DISABLE;
 8002e18:	2100      	movs	r1, #0
 8002e1a:	6641      	str	r1, [r0, #100]	@ 0x64

  /* Restore UART configuration */
  WRITE_REG(huart->Instance->CR1, tmpcr1);
 8002e1c:	601a      	str	r2, [r3, #0]

  huart->gState = HAL_UART_STATE_READY;
 8002e1e:	2320      	movs	r3, #32
 8002e20:	5143      	str	r3, [r0, r5]

  /* Process Unlocked */
  __HAL_UNLOCK(huart);
 8002e22:	5501      	strb	r1, [r0, r4]

  return HAL_OK;
 8002e24:	2000      	movs	r0, #0
}
 8002e26:	bd70      	pop	{r4, r5, r6, pc}
  __HAL_LOCK(huart);
 8002e28:	2002      	movs	r0, #2
 8002e2a:	e7fc      	b.n	8002e26 <HAL_UARTEx_DisableFifoMode+0x2e>
 8002e2c:	dfffffff 	.word	0xdfffffff

08002e30 <HAL_UARTEx_SetTxFifoThreshold>:
  *            @arg @ref UART_TXFIFO_THRESHOLD_7_8
  *            @arg @ref UART_TXFIFO_THRESHOLD_8_8
  * @retval HAL status
  */
HAL_StatusTypeDef HAL_UARTEx_SetTxFifoThreshold(UART_HandleTypeDef *huart, uint32_t Threshold)
{
 8002e30:	b5f0      	push	{r4, r5, r6, r7, lr}
 8002e32:	46d6      	mov	lr, sl
 8002e34:	464f      	mov	r7, r9
 8002e36:	4646      	mov	r6, r8
  /* Check parameters */
  assert_param(IS_UART_FIFO_INSTANCE(huart->Instance));
  assert_param(IS_UART_TXFIFO_THRESHOLD(Threshold));

  /* Process Locked */
  __HAL_LOCK(huart);
 8002e38:	2384      	movs	r3, #132	@ 0x84
{
 8002e3a:	b5c0      	push	{r6, r7, lr}
  __HAL_LOCK(huart);
 8002e3c:	5cc3      	ldrb	r3, [r0, r3]
{
 8002e3e:	0004      	movs	r4, r0
 8002e40:	000a      	movs	r2, r1
  __HAL_LOCK(huart);
 8002e42:	2b01      	cmp	r3, #1
 8002e44:	d03d      	beq.n	8002ec2 <HAL_UARTEx_SetTxFifoThreshold+0x92>

  huart->gState = HAL_UART_STATE_BUSY;
 8002e46:	2388      	movs	r3, #136	@ 0x88
 8002e48:	2124      	movs	r1, #36	@ 0x24

  /* Save actual UART configuration */
  tmpcr1 = READ_REG(huart->Instance->CR1);
 8002e4a:	6805      	ldr	r5, [r0, #0]
  huart->gState = HAL_UART_STATE_BUSY;
 8002e4c:	50c1      	str	r1, [r0, r3]
  tmpcr1 = READ_REG(huart->Instance->CR1);
 8002e4e:	682e      	ldr	r6, [r5, #0]

  /* Disable UART */
  __HAL_UART_DISABLE(huart);
 8002e50:	682b      	ldr	r3, [r5, #0]
 8002e52:	3923      	subs	r1, #35	@ 0x23
 8002e54:	438b      	bics	r3, r1
 8002e56:	602b      	str	r3, [r5, #0]

  /* Update TX threshold configuration */
  MODIFY_REG(huart->Instance->CR3, USART_CR3_TXFTCFG, Threshold);
 8002e58:	68ab      	ldr	r3, [r5, #8]
 8002e5a:	00db      	lsls	r3, r3, #3
 8002e5c:	08d9      	lsrs	r1, r3, #3
  uint8_t rx_fifo_threshold;
  uint8_t tx_fifo_threshold;
  static const uint8_t numerator[] = {1U, 1U, 1U, 3U, 7U, 1U, 0U, 0U};
  static const uint8_t denominator[] = {8U, 4U, 2U, 4U, 8U, 1U, 1U, 1U};

  if (huart->FifoMode == UART_FIFOMODE_DISABLE)
 8002e5e:	6e43      	ldr	r3, [r0, #100]	@ 0x64
  MODIFY_REG(huart->Instance->CR3, USART_CR3_TXFTCFG, Threshold);
 8002e60:	4311      	orrs	r1, r2
 8002e62:	60a9      	str	r1, [r5, #8]
  if (huart->FifoMode == UART_FIFOMODE_DISABLE)
 8002e64:	2b00      	cmp	r3, #0
 8002e66:	d029      	beq.n	8002ebc <HAL_UARTEx_SetTxFifoThreshold+0x8c>
  }
  else
  {
    rx_fifo_depth = RX_FIFO_DEPTH;
    tx_fifo_depth = TX_FIFO_DEPTH;
    rx_fifo_threshold = (uint8_t)(READ_BIT(huart->Instance->CR3, USART_CR3_RXFTCFG) >> USART_CR3_RXFTCFG_Pos);
 8002e68:	68ab      	ldr	r3, [r5, #8]
    tx_fifo_threshold = (uint8_t)(READ_BIT(huart->Instance->CR3, USART_CR3_TXFTCFG) >> USART_CR3_TXFTCFG_Pos);
    huart->NbTxDataToProcess = ((uint16_t)tx_fifo_depth * numerator[tx_fifo_threshold]) /
 8002e6a:	4a17      	ldr	r2, [pc, #92]	@ (8002ec8 <HAL_UARTEx_SetTxFifoThreshold+0x98>)
    rx_fifo_threshold = (uint8_t)(READ_BIT(huart->Instance->CR3, USART_CR3_RXFTCFG) >> USART_CR3_RXFTCFG_Pos);
 8002e6c:	4698      	mov	r8, r3
    huart->NbTxDataToProcess = ((uint16_t)tx_fifo_depth * numerator[tx_fifo_threshold]) /
 8002e6e:	4692      	mov	sl, r2
    tx_fifo_threshold = (uint8_t)(READ_BIT(huart->Instance->CR3, USART_CR3_TXFTCFG) >> USART_CR3_TXFTCFG_Pos);
 8002e70:	68ab      	ldr	r3, [r5, #8]
 8002e72:	0f5b      	lsrs	r3, r3, #29
    huart->NbTxDataToProcess = ((uint16_t)tx_fifo_depth * numerator[tx_fifo_threshold]) /
 8002e74:	5cd0      	ldrb	r0, [r2, r3]
                               (uint16_t)denominator[tx_fifo_threshold];
 8002e76:	4a15      	ldr	r2, [pc, #84]	@ (8002ecc <HAL_UARTEx_SetTxFifoThreshold+0x9c>)
    huart->NbTxDataToProcess = ((uint16_t)tx_fifo_depth * numerator[tx_fifo_threshold]) /
 8002e78:	00c0      	lsls	r0, r0, #3
                               (uint16_t)denominator[tx_fifo_threshold];
 8002e7a:	5cd1      	ldrb	r1, [r2, r3]
 8002e7c:	4691      	mov	r9, r2
    huart->NbTxDataToProcess = ((uint16_t)tx_fifo_depth * numerator[tx_fifo_threshold]) /
 8002e7e:	f7fd f9c9 	bl	8000214 <__divsi3>
    rx_fifo_threshold = (uint8_t)(READ_BIT(huart->Instance->CR3, USART_CR3_RXFTCFG) >> USART_CR3_RXFTCFG_Pos);
 8002e82:	4643      	mov	r3, r8
    huart->NbRxDataToProcess = ((uint16_t)rx_fifo_depth * numerator[rx_fifo_threshold]) /
 8002e84:	4652      	mov	r2, sl
    rx_fifo_threshold = (uint8_t)(READ_BIT(huart->Instance->CR3, USART_CR3_RXFTCFG) >> USART_CR3_RXFTCFG_Pos);
 8002e86:	011b      	lsls	r3, r3, #4
    huart->NbRxDataToProcess = ((uint16_t)rx_fifo_depth * numerator[rx_fifo_threshold]) /
 8002e88:	0f5b      	lsrs	r3, r3, #29
    huart->NbTxDataToProcess = ((uint16_t)tx_fifo_depth * numerator[tx_fifo_threshold]) /
 8002e8a:	b287      	uxth	r7, r0
    huart->NbRxDataToProcess = ((uint16_t)rx_fifo_depth * numerator[rx_fifo_threshold]) /
 8002e8c:	5cd0      	ldrb	r0, [r2, r3]
                               (uint16_t)denominator[rx_fifo_threshold];
 8002e8e:	464a      	mov	r2, r9
    huart->NbRxDataToProcess = ((uint16_t)rx_fifo_depth * numerator[rx_fifo_threshold]) /
 8002e90:	00c0      	lsls	r0, r0, #3
                               (uint16_t)denominator[rx_fifo_threshold];
 8002e92:	5cd1      	ldrb	r1, [r2, r3]
    huart->NbRxDataToProcess = ((uint16_t)rx_fifo_depth * numerator[rx_fifo_threshold]) /
 8002e94:	f7fd f9be 	bl	8000214 <__divsi3>
 8002e98:	b280      	uxth	r0, r0
 8002e9a:	2368      	movs	r3, #104	@ 0x68
  huart->gState = HAL_UART_STATE_READY;
 8002e9c:	2220      	movs	r2, #32
 8002e9e:	52e0      	strh	r0, [r4, r3]
 8002ea0:	3302      	adds	r3, #2
 8002ea2:	52e7      	strh	r7, [r4, r3]
 8002ea4:	331e      	adds	r3, #30
  WRITE_REG(huart->Instance->CR1, tmpcr1);
 8002ea6:	602e      	str	r6, [r5, #0]
  huart->gState = HAL_UART_STATE_READY;
 8002ea8:	50e2      	str	r2, [r4, r3]
  __HAL_UNLOCK(huart);
 8002eaa:	2200      	movs	r2, #0
  return HAL_OK;
 8002eac:	2000      	movs	r0, #0
  __HAL_UNLOCK(huart);
 8002eae:	3b04      	subs	r3, #4
 8002eb0:	54e2      	strb	r2, [r4, r3]
}
 8002eb2:	bce0      	pop	{r5, r6, r7}
 8002eb4:	46ba      	mov	sl, r7
 8002eb6:	46b1      	mov	r9, r6
 8002eb8:	46a8      	mov	r8, r5
 8002eba:	bdf0      	pop	{r4, r5, r6, r7, pc}
    huart->NbRxDataToProcess = 1U;
 8002ebc:	2001      	movs	r0, #1
    huart->NbTxDataToProcess = 1U;
 8002ebe:	2701      	movs	r7, #1
 8002ec0:	e7eb      	b.n	8002e9a <HAL_UARTEx_SetTxFifoThreshold+0x6a>
  __HAL_LOCK(huart);
 8002ec2:	2002      	movs	r0, #2
 8002ec4:	e7f5      	b.n	8002eb2 <HAL_UARTEx_SetTxFifoThreshold+0x82>
 8002ec6:	46c0      	nop			@ (mov r8, r8)
 8002ec8:	08003088 	.word	0x08003088
 8002ecc:	08003080 	.word	0x08003080

08002ed0 <HAL_UARTEx_SetRxFifoThreshold>:
{
 8002ed0:	b5f0      	push	{r4, r5, r6, r7, lr}
 8002ed2:	46d6      	mov	lr, sl
 8002ed4:	464f      	mov	r7, r9
 8002ed6:	4646      	mov	r6, r8
  __HAL_LOCK(huart);
 8002ed8:	2384      	movs	r3, #132	@ 0x84
{
 8002eda:	b5c0      	push	{r6, r7, lr}
  __HAL_LOCK(huart);
 8002edc:	5cc3      	ldrb	r3, [r0, r3]
{
 8002ede:	0004      	movs	r4, r0
 8002ee0:	000a      	movs	r2, r1
  __HAL_LOCK(huart);
 8002ee2:	2b01      	cmp	r3, #1
 8002ee4:	d03d      	beq.n	8002f62 <HAL_UARTEx_SetRxFifoThreshold+0x92>
  huart->gState = HAL_UART_STATE_BUSY;
 8002ee6:	2388      	movs	r3, #136	@ 0x88
 8002ee8:	2124      	movs	r1, #36	@ 0x24
  tmpcr1 = READ_REG(huart->Instance->CR1);
 8002eea:	6805      	ldr	r5, [r0, #0]
  huart->gState = HAL_UART_STATE_BUSY;
 8002eec:	50c1      	str	r1, [r0, r3]
  tmpcr1 = READ_REG(huart->Instance->CR1);
 8002eee:	682e      	ldr	r6, [r5, #0]
  __HAL_UART_DISABLE(huart);
 8002ef0:	682b      	ldr	r3, [r5, #0]
 8002ef2:	3923      	subs	r1, #35	@ 0x23
 8002ef4:	438b      	bics	r3, r1
 8002ef6:	602b      	str	r3, [r5, #0]
  MODIFY_REG(huart->Instance->CR3, USART_CR3_RXFTCFG, Threshold);
 8002ef8:	68a9      	ldr	r1, [r5, #8]
 8002efa:	4b1b      	ldr	r3, [pc, #108]	@ (8002f68 <HAL_UARTEx_SetRxFifoThreshold+0x98>)
 8002efc:	4019      	ands	r1, r3
  if (huart->FifoMode == UART_FIFOMODE_DISABLE)
 8002efe:	6e43      	ldr	r3, [r0, #100]	@ 0x64
  MODIFY_REG(huart->Instance->CR3, USART_CR3_RXFTCFG, Threshold);
 8002f00:	4311      	orrs	r1, r2
 8002f02:	60a9      	str	r1, [r5, #8]
  if (huart->FifoMode == UART_FIFOMODE_DISABLE)
 8002f04:	2b00      	cmp	r3, #0
 8002f06:	d029      	beq.n	8002f5c <HAL_UARTEx_SetRxFifoThreshold+0x8c>
    rx_fifo_threshold = (uint8_t)(READ_BIT(huart->Instance->CR3, USART_CR3_RXFTCFG) >> USART_CR3_RXFTCFG_Pos);
 8002f08:	68ab      	ldr	r3, [r5, #8]
    huart->NbTxDataToProcess = ((uint16_t)tx_fifo_depth * numerator[tx_fifo_threshold]) /
 8002f0a:	4a18      	ldr	r2, [pc, #96]	@ (8002f6c <HAL_UARTEx_SetRxFifoThreshold+0x9c>)
    rx_fifo_threshold = (uint8_t)(READ_BIT(huart->Instance->CR3, USART_CR3_RXFTCFG) >> USART_CR3_RXFTCFG_Pos);
 8002f0c:	4698      	mov	r8, r3
    huart->NbTxDataToProcess = ((uint16_t)tx_fifo_depth * numerator[tx_fifo_threshold]) /
 8002f0e:	4692      	mov	sl, r2
    tx_fifo_threshold = (uint8_t)(READ_BIT(huart->Instance->CR3, USART_CR3_TXFTCFG) >> USART_CR3_TXFTCFG_Pos);
 8002f10:	68ab      	ldr	r3, [r5, #8]
 8002f12:	0f5b      	lsrs	r3, r3, #29
    huart->NbTxDataToProcess = ((uint16_t)tx_fifo_depth * numerator[tx_fifo_threshold]) /
 8002f14:	5cd0      	ldrb	r0, [r2, r3]
                               (uint16_t)denominator[tx_fifo_threshold];
 8002f16:	4a16      	ldr	r2, [pc, #88]	@ (8002f70 <HAL_UARTEx_SetRxFifoThreshold+0xa0>)
    huart->NbTxDataToProcess = ((uint16_t)tx_fifo_depth * numerator[tx_fifo_threshold]) /
 8002f18:	00c0      	lsls	r0, r0, #3
                               (uint16_t)denominator[tx_fifo_threshold];
 8002f1a:	5cd1      	ldrb	r1, [r2, r3]
 8002f1c:	4691      	mov	r9, r2
    huart->NbTxDataToProcess = ((uint16_t)tx_fifo_depth * numerator[tx_fifo_threshold]) /
 8002f1e:	f7fd f979 	bl	8000214 <__divsi3>
    rx_fifo_threshold = (uint8_t)(READ_BIT(huart->Instance->CR3, USART_CR3_RXFTCFG) >> USART_CR3_RXFTCFG_Pos);
 8002f22:	4643      	mov	r3, r8
    huart->NbRxDataToProcess = ((uint16_t)rx_fifo_depth * numerator[rx_fifo_threshold]) /
 8002f24:	4652      	mov	r2, sl
    rx_fifo_threshold = (uint8_t)(READ_BIT(huart->Instance->CR3, USART_CR3_RXFTCFG) >> USART_CR3_RXFTCFG_Pos);
 8002f26:	011b      	lsls	r3, r3, #4
    huart->NbRxDataToProcess = ((uint16_t)rx_fifo_depth * numerator[rx_fifo_threshold]) /
 8002f28:	0f5b      	lsrs	r3, r3, #29
    huart->NbTxDataToProcess = ((uint16_t)tx_fifo_depth * numerator[tx_fifo_threshold]) /
 8002f2a:	b287      	uxth	r7, r0
    huart->NbRxDataToProcess = ((uint16_t)rx_fifo_depth * numerator[rx_fifo_threshold]) /
 8002f2c:	5cd0      	ldrb	r0, [r2, r3]
                               (uint16_t)denominator[rx_fifo_threshold];
 8002f2e:	464a      	mov	r2, r9
    huart->NbRxDataToProcess = ((uint16_t)rx_fifo_depth * numerator[rx_fifo_threshold]) /
 8002f30:	00c0      	lsls	r0, r0, #3
                               (uint16_t)denominator[rx_fifo_threshold];
 8002f32:	5cd1      	ldrb	r1, [r2, r3]
    huart->NbRxDataToProcess = ((uint16_t)rx_fifo_depth * numerator[rx_fifo_threshold]) /
 8002f34:	f7fd f96e 	bl	8000214 <__divsi3>
 8002f38:	b280      	uxth	r0, r0
 8002f3a:	2368      	movs	r3, #104	@ 0x68
  huart->gState = HAL_UART_STATE_READY;
 8002f3c:	2220      	movs	r2, #32
 8002f3e:	52e0      	strh	r0, [r4, r3]
 8002f40:	3302      	adds	r3, #2
 8002f42:	52e7      	strh	r7, [r4, r3]
 8002f44:	331e      	adds	r3, #30
  WRITE_REG(huart->Instance->CR1, tmpcr1);
 8002f46:	602e      	str	r6, [r5, #0]
  huart->gState = HAL_UART_STATE_READY;
 8002f48:	50e2      	str	r2, [r4, r3]
  __HAL_UNLOCK(huart);
 8002f4a:	2200      	movs	r2, #0
  return HAL_OK;
 8002f4c:	2000      	movs	r0, #0
  __HAL_UNLOCK(huart);
 8002f4e:	3b04      	subs	r3, #4
 8002f50:	54e2      	strb	r2, [r4, r3]
}
 8002f52:	bce0      	pop	{r5, r6, r7}
 8002f54:	46ba      	mov	sl, r7
 8002f56:	46b1      	mov	r9, r6
 8002f58:	46a8      	mov	r8, r5
 8002f5a:	bdf0      	pop	{r4, r5, r6, r7, pc}
    huart->NbRxDataToProcess = 1U;
 8002f5c:	2001      	movs	r0, #1
    huart->NbTxDataToProcess = 1U;
 8002f5e:	2701      	movs	r7, #1
 8002f60:	e7eb      	b.n	8002f3a <HAL_UARTEx_SetRxFifoThreshold+0x6a>
  __HAL_LOCK(huart);
 8002f62:	2002      	movs	r0, #2
 8002f64:	e7f5      	b.n	8002f52 <HAL_UARTEx_SetRxFifoThreshold+0x82>
 8002f66:	46c0      	nop			@ (mov r8, r8)
 8002f68:	f1ffffff 	.word	0xf1ffffff
 8002f6c:	08003088 	.word	0x08003088
 8002f70:	08003080 	.word	0x08003080

08002f74 <memset>:
 8002f74:	0003      	movs	r3, r0
 8002f76:	1882      	adds	r2, r0, r2
 8002f78:	4293      	cmp	r3, r2
 8002f7a:	d100      	bne.n	8002f7e <memset+0xa>
 8002f7c:	4770      	bx	lr
 8002f7e:	7019      	strb	r1, [r3, #0]
 8002f80:	3301      	adds	r3, #1
 8002f82:	e7f9      	b.n	8002f78 <memset+0x4>

08002f84 <__libc_init_array>:
 8002f84:	b570      	push	{r4, r5, r6, lr}
 8002f86:	2600      	movs	r6, #0
 8002f88:	4c0c      	ldr	r4, [pc, #48]	@ (8002fbc <__libc_init_array+0x38>)
 8002f8a:	4d0d      	ldr	r5, [pc, #52]	@ (8002fc0 <__libc_init_array+0x3c>)
 8002f8c:	1b64      	subs	r4, r4, r5
 8002f8e:	10a4      	asrs	r4, r4, #2
 8002f90:	42a6      	cmp	r6, r4
 8002f92:	d109      	bne.n	8002fa8 <__libc_init_array+0x24>
 8002f94:	2600      	movs	r6, #0
 8002f96:	f000 f819 	bl	8002fcc <_init>
 8002f9a:	4c0a      	ldr	r4, [pc, #40]	@ (8002fc4 <__libc_init_array+0x40>)
 8002f9c:	4d0a      	ldr	r5, [pc, #40]	@ (8002fc8 <__libc_init_array+0x44>)
 8002f9e:	1b64      	subs	r4, r4, r5
 8002fa0:	10a4      	asrs	r4, r4, #2
 8002fa2:	42a6      	cmp	r6, r4
 8002fa4:	d105      	bne.n	8002fb2 <__libc_init_array+0x2e>
 8002fa6:	bd70      	pop	{r4, r5, r6, pc}
 8002fa8:	00b3      	lsls	r3, r6, #2
 8002faa:	58eb      	ldr	r3, [r5, r3]
 8002fac:	4798      	blx	r3
 8002fae:	3601      	adds	r6, #1
 8002fb0:	e7ee      	b.n	8002f90 <__libc_init_array+0xc>
 8002fb2:	00b3      	lsls	r3, r6, #2
 8002fb4:	58eb      	ldr	r3, [r5, r3]
 8002fb6:	4798      	blx	r3
 8002fb8:	3601      	adds	r6, #1
 8002fba:	e7f2      	b.n	8002fa2 <__libc_init_array+0x1e>
 8002fbc:	08003090 	.word	0x08003090
 8002fc0:	08003090 	.word	0x08003090
 8002fc4:	08003094 	.word	0x08003094
 8002fc8:	08003090 	.word	0x08003090

08002fcc <_init>:
 8002fcc:	b5f8      	push	{r3, r4, r5, r6, r7, lr}
 8002fce:	46c0      	nop			@ (mov r8, r8)
 8002fd0:	bcf8      	pop	{r3, r4, r5, r6, r7}
 8002fd2:	bc08      	pop	{r3}
 8002fd4:	469e      	mov	lr, r3
 8002fd6:	4770      	bx	lr

08002fd8 <_fini>:
 8002fd8:	b5f8      	push	{r3, r4, r5, r6, r7, lr}
 8002fda:	46c0      	nop			@ (mov r8, r8)
 8002fdc:	bcf8      	pop	{r3, r4, r5, r6, r7}
 8002fde:	bc08      	pop	{r3}
 8002fe0:	469e      	mov	lr, r3
 8002fe2:	4770      	bx	lr
